((lp0
I0
aI0
aF-4.741198458811201
aF-8.975058696551036
aF-10.287036209535097
aF5.993961427306569
aF-5.993961427306569
aI0
aF2.061098469798556
aF8.975058696551036
aI0
aF-4.741198458811201
aF-8.975058696551036
aI0
aI0
aI0
aI0
aI0
aI0
aI0
aI0
aI0
aF10.148658891029184
aI0
aI0
aF13.183895730580723
aI0
aF-10.287036209535097
aF5.993961427306569
aF-4.741198458811201
aI0
aI0
aI0
aI0
aF-0.0067184488270578425
aI0
aI0
aF5.077670695432414
aI0
aI0
aI0
aF-4.048051278251256
aF-4.6076670661866785
aI0
aF5.300814246746624
aI0
aI0
aI0
aF-6.8527406631969185
aI0
aF10.656062119244412
aI0
aI0
aI0
aI0
aF4.741198458811201
aI0
aI0
aI0
aI0
aI0
aI0
aF-0.853478599308167
aI0
aF8.288546591942264
aI0
aI0
aI0
aF3.8538952638102986
aF-5.588496319198405
aF-5.993961427306569
aI0
aF-3.1035896694104044
aF7.854412475214888
aF1.4967243044599474
aF-11.17699263839681
aI0
aF-6.207179338820809
aF-5.993961427306569
aI0
aF5.077670695432414
aF-5.993961427306569
aF-5.588496319198405
aF-9.139161621725615
aF0.0
aF0.0
aI0
aF-9.462146786420412
aF5.993961427306569
aI0
aF4.289213335068144
aF9.790698277276919
aF-3.3797926682047996
aI0
aI0
aF5.588496319198405
aF10.155341390864828
aI0
aF4.048051278251256
aI0
aI0
aF-9.565020286082238
aI0
aI0
aF8.578426670136288
aF5.993961427306569
aF5.993961427306569
aI0
aF11.78350206951907
aF20.064138136944436
aF-4.741198458811201
aI0
aF-8.818792668688763
aI0
aI0
aI0
aF4.1221592504049775
aF6.4427454101335755
aI0
aI0
aI0
aI0
aI0
aI0
aI0
aF-5.588496319198405
aF-5.077670695432414
aI0
aF3.8538952638102986
aI0
aI0
aI0
aI0
aI0
aF-4.895349138638459
aF0.0
aF-5.077670695432414
aI0
aI0
aF5.588496319198405
aF13.255716615189487
aI0
aI0
aF-7.114946397464117
aI0
aI0
aI0
aI0
aF-5.257297182394822
aI0
aF-5.300814246746624
aI0
aI0
aI0
aF-5.077670695432414
aF-6.719955169261922
aF3.5960661545081987
aF11.17699263839681
aI0
aF-5.993961427306569
aF-5.077670695432414
aF-5.588496319198405
aF4.048051278251256
aF5.300814246746624
aF1.6413435491635386
aF-0.6209686959104364
aF12.606605874235541
aI0
aF-8.975058696551036
aI0
aI0
aF5.993961427306569
aI0
aI0
aF4.895349138638459
aI0
aF-5.932735219662542
aF-11.124353918169456
aI0
aI0
aF11.728087050646273
aI0
aF0.0
aF22.950882467389302
aF-9.941419767139479
aF-10.75651862909768
aI0
aI0
aF0.0
aI0
aI0
aI0
aI0
aI0
aF-9.669706727190702
aI0
aF8.027546803011344
aF-9.462146786420412
aF-9.001395813693135
aF5.300814246746624
aF4.895349138638459
aF-7.707790527620597
aI0
aI0
aI0
aI0
aI0
aI0
aF0.0
aI0
aF10.155341390864828
aI0
aI0
aI0
aF-5.993961427306569
aI0
aI0
aI0
aI0
aI0
aI0
aI0
aF16.18963753725115
aF-6.336890529600868
aI0
aI0
aI0
aF5.300814246746624
aI0
aI0
aI0
aI0
aF-5.300814246746624
aF6.966999891736468
aF-10.039351738818782
aF-10.148658891029184
aF-12.265937491920491
aI0
aF-10.508236293547073
aI0
aI0
aF-10.148658891029184
aI0
aI0
aI0
aI0
aF-3.8538952638102986
aI0
aI0
aI0
aF9.462146786420412
aI0
aI0
aI0
aF10.235325595113354
aI0
aF0.3897375456920864
aF0.0
aI0
aI0
aI0
aF10.148658891029184
aI0
aI0
aI0
aF3.7671547979230247
aI0
aI0
aF1.0146661087923627
aF-5.993961427306569
aI0
aF-5.993961427306569
aF-10.656062119244412
aI0
aF4.741198458811201
aF-4.741198458811201
aF13.249866419516966
aI0
aI0
aF5.993961427306569
aI0
aF8.59724382178325
aI0
aI0
aI0
aI0
aF11.764615460157176
aF5.588496319198405
aI0
aF-3.9790584067643047
aF2.4926031161044024
aF5.993961427306569
aF-8.087831959872121
aI0
aI0
aF-8.975058696551036
aF5.588496319198405
aI0
aF7.114946397464117
aI0
aF-5.077670695432414
aI0
aI0
aI0
aI0
aI0
aI0
aI0
aI0
aI0
aF8.288546591942264
aI0
aI0
aF3.9790584067643047
aI0
aF2.9037057699671713
aF0.0
aF7.602034487333492
aI0
aI0
aF4.6076670661866785
aI0
aI0
aF-5.077670695432414
aF-11.728087050646273
aF-9.42252580116558
aI0
aI0
aI0
aI0
aI0
aF8.818792668688763
aF10.148658891029184
aI0
aI0
aI0
aI0
aF-9.565020286082238
aI0
aI0
aI0
aI0
aI0
aI0
aI0
aI0
aF0.0
aI0
aF-4.384523514872469
aI0
aF0.0
aF-11.058566483310615
aI0
aF3.914519885626733
aI0
aF-5.588496319198405
aI0
aI0
aI0
aF-5.300814246746624
aF5.993961427306569
aF-1.0226597514500515
aI0
aI0
aF10.155341390864828
aF9.215334132373357
aI0
aI0
aF10.148658891029184
aI0
aI0
aF-10.148658891029184
aF0.741657358936952
aI0
aF-3.742669628700074
aI0
aF5.993961427306569
aF-8.808710531341388
aI0
aF-8.288546591942264
aF-4.741198458811201
aF2.9127444393856035
aF-8.857281627928938
aI0
aF8.975058696551036
aF11.7435596568802
aF-7.231327466551378
aF-10.656062119244412
aF4.741198458811201
aI0
aF-4.895349138638459
aF4.895349138638459
aF3.7967368499703498
aF5.993961427306569
aI0
aF-4.6076670661866785
aI0
aF-2.735864889285087
aF-11.378200862540812
aI0
aI0
aF0.0
aF-2.592764045644414
aF10.148658891029184
aI0
aI0
aF-5.993961427306569
aI0
aI0
aI0
aI0
aI0
aI0
aI0
aI0
aI0
aF11.7435596568802
aI0
aI0
aI0
aI0
aI0
aF5.993961427306569
aI0
aI0
aI0
aF9.462146786420412
aF-6.250043432826955
aF0.0
aI0
aI0
aF5.993961427306569
aI0
aI0
aF10.148658891029184
aF-5.993961427306569
aF-5.993961427306569
aI0
aI0
aF-8.975058696551036
aF5.300814246746624
aI0
aF-5.993961427306569
aF4.1221592504049775
aF-3.914519885626733
aF-4.489884030530295
aI0
aI0
aI0
aF5.300814246746624
aF11.728087050646273
aF4.741198458811201
aF-7.382752668625047
aI0
aI0
aI0
aF-5.300814246746624
aI0
aI0
aI0
aI0
aI0
aF5.588496319198405
aI0
aI0
aF-5.300814246746624
aF-5.993961427306569
aI0
aF-3.1035896694104044
aI0
aI0
aF-14.365340183221425
aI0
aI0
aF10.273439859667517
aI0
aI0
aF-5.588496319198405
aI0
aF-5.077670695432414
aF0.0
aF-2.5248483337813337
aF-5.588496319198405
aI0
aF5.993961427306569
aI0
aF5.993961427306569
aI0
aI0
aF3.4290120698450326
aF5.588496319198405
aF-3.5960661545081987
aF8.51235978886594
aI0
aI0
aF9.597073635804783
aF-8.358423767787604
aI0
aF4.741198458811201
aI0
aI0
aI0
aI0
aI0
aI0
aI0
aI0
aI0
aI0
aI0
aI0
aI0
aI0
aF-10.148658891029184
aF4.739240988660408
aF3.7535874813703742
aF8.975058696551036
aI0
aF2.241100257342934
aI0
aF-5.588496319198405
aI0
aI0
aF10.148658891029184
aF3.760819345767553
aF0.0
aI0
aF3.5516143919373646
aF4.489884030530295
aF4.7677460085078245
aF4.289213335068144
aF2.7552829751421886
aF11.561685791430897
aI0
aF-17.07550456957871
aF-5.077670695432414
aI0
aF-5.993961427306569
aI0
aI0
aI0
aI0
aF16.772925326280674
aI0
aF5.993961427306569
aI0
aI0
aI0
aF-5.993961427306569
aI0
aI0
aI0
aI0
aF-14.912882888443121
aI0
aI0
aI0
aF-5.588496319198405
aI0
aI0
aF-4.895349138638459
aF-4.6076670661866785
aI0
aI0
aI0
aI0
aI0
aI0
aI0
aI0
aF9.42252580116558
aI0
aF0.0
aI0
aI0
aI0
aF5.993961427306569
aI0
aI0
aI0
aI0
aI0
aF-5.588496319198405
aF5.993961427306569
aF0.0
aI0
aF0.0
aI0
aF9.42252580116558
aI0
aF8.975058696551036
aF-11.939243849262452
aI0
aF5.588496319198405
aF-4.489884030530295
aI0
aF5.588496319198405
aF5.588496319198405
aI0
aI0
aF-6.381202092800069
aI0
aI0
aI0
aI0
aI0
aI0
aF0.0
aF11.551482800158894
aI0
aF-3.9790584067643047
aI0
aI0
aF-6.428434292855346
aI0
aI0
aF-7.602034487333492
aI0
aI0
aF-1.953746380980828
aF3.2213727050667877
aI0
aI0
aI0
aI0
aF-5.588496319198405
aI0
aF-4.741198458811201
aF-6.9364655659966274
aI0
aF-5.588496319198405
aF5.300814246746624
aF7.80145850207289
aI0
aI0
aI0
aI0
aI0
aI0
aI0
aF-3.947852328912083
aF0.0
aI0
aF-4.268251631222963
aF-9.572976916087162
aI0
aI0
aF0.0
aF-4.6076670661866785
aI0
aI0
aF-10.148658891029184
aI0
aI0
aF-5.993961427306569
aI0
aF-1.8965284530704762
aF-3.1937914358862116
aI0
aF-2.6713166362834357
aF-9.669706727190702
aI0
aI0
aI0
aF14.27587294329766
aI0
aF-3.7967368499703498
aI0
aF-4.384523514872469
aF-10.148658891029184
aI0
aI0
aF10.148658891029184
aF-4.741198458811201
aF-5.8722285580591675
aF12.366477751214934
aF5.993961427306569
aI0
aF0.0
aI0
aF4.6076670661866785
aF-6.399765284236133
aI0
aI0
aF10.601628493493248
aF-10.995249937959102
aI0
aF-10.148658891029184
aF9.571803139200103
aI0
aF-5.588496319198405
aF4.6076670661866785
aI0
aF-9.462146786420412
aI0
aF11.17699263839681
aF-5.588496319198405
aF-5.993961427306569
aI0
aI0
aF-7.447247965426646
aI0
aI0
aF-5.300814246746624
aI0
aI0
aF-11.728087050646273
aF10.148658891029184
aI0
aF-4.895349138638459
aI0
aI0
aF3.5960661545081987
aF4.048051278251256
aF4.741198458811201
aI0
aI0
aF5.077670695432414
aF-5.077670695432414
aF0.0
aI0
aI0
aF-6.9364655659966274
aF-11.44114188766704
aI0
aF5.588496319198405
aI0
aF0.0
aI0
aI0
aF-4.489884030530295
aI0
aF-4.895349138638459
aF-3.9790584067643047
aI0
aI0
aF0.5900277147858937
aF-5.077670695432414
aF-3.4682327829983137
aI0
aI0
aF-4.895349138638459
aI0
aF-4.741198458811201
aI0
aF-4.1221592504049775
aI0
aF9.94993734867549
aI0
aF-10.039351738818782
aI0
aI0
aI0
aF4.741198458811201
aI0
aI0
aF11.422404776682333
aF3.393197453303805
aI0
aF8.288546591942264
aI0
aI0
aI0
aF-4.289213335068144
aI0
aF-4.741198458811201
aF-5.300814246746624
aI0
aF-5.002732298642314
aI0
aI0
aI0
aF10.148658891029184
aF-5.993961427306569
aI0
aF-4.048051278251256
aI0
aF5.993961427306569
aF-4.895349138638459
aI0
aI0
aF-4.6076670661866785
aI0
aI0
aI0
aF10.148658891029184
aI0
aI0
aI0
aF4.289213335068144
aI0
aI0
aF3.914519885626733
aF-4.741198458811201
aI0
aI0
aF-8.027546803011344
aF-6.088669270612601
aF5.993961427306569
aI0
aI0
aI0
aI0
aI0
aF-11.124353918169456
aI0
aI0
aI0
aI0
aF5.993961427306569
aI0
aF-7.967878610186826
aI0
aI0
aI0
aI0
aF4.741198458811201
aF0.0
aF0.0
aI0
aI0
aI0
aF-6.627858307594743
aF8.975058696551036
aI0
aI0
aI0
aF-16.39544156181903
aI0
aI0
aF6.63962555576008
aI0
aI0
aI0
aI0
aI0
aI0
aF-10.148658891029184
aI0
aI0
aF-6.428434292855346
aF-1.3862943611198908
aI0
aI0
aI0
aF7.192132309016397
aF5.588496319198405
aI0
aF-4.741198458811201
aI0
aI0
aI0
aI0
aF-4.741198458811201
aI0
aI0
aI0
aF-5.588496319198405
aI0
aF0.0
aI0
aF-8.288546591942264
aF8.51235978886594
aF-3.742669628700074
aI0
aF-5.588496319198405
aF-9.94993734867549
aI0
aI0
aI0
aF0.0
aF4.741198458811201
aI0
aI0
aF10.148658891029184
aI0
aI0
aF15.212689899116647
aI0
aI0
aF-9.462146786420412
aI0
aF6.321496166500706
aF4.741198458811201
aI0
aI0
aI0
aF4.048051278251256
aI0
aF-4.384523514872469
aF10.148658891029184
aF-14.697813178418567
aI0
aF3.7967368499703498
aI0
aF9.790698277276919
aI0
aI0
aI0
aF0.0
aI0
aI0
aF0.0
aI0
aI0
aF-1.1304437534755614
aI0
aF5.077670695432414
aI0
aF5.588496319198405
aF5.588496319198405
aF5.077670695432414
aF-9.462146786420412
aF-11.728087050646273
aI0
aI0
aF9.582119917004249
aF-4.489884030530295
aI0
aI0
aF7.262269465090749
aF-4.741198458811201
aF5.588496319198405
aI0
aF4.839805699666727
aF3.740394864932375
aF-5.077670695432414
aI0
aI0
aF-5.993961427306569
aI0
aF-4.6076670661866785
aI0
aF-5.588496319198405
aI0
aI0
aF-3.2859112262043593
aI0
aI0
aI0
aI0
aF5.077670695432414
aI0
aF5.588496319198405
aF-4.895349138638459
aF5.588496319198405
aI0
aF5.077670695432414
aI0
aI0
aF2.9494389895831463
aI0
aI0
aI0
aI0
aI0
aF-8.59724382178325
aF-5.993961427306569
aI0
aI0
aI0
aI0
aI0
aF-5.993961427306569
aF10.601628493493248
aF-0.02581521609339952
aF-7.262269465090749
aI0
aF22.72164998584988
aI0
aI0
aF5.491659476771424
aF0.0
aI0
aI0
aI0
aF4.1221592504049775
aF-5.300814246746624
aI0
aF3.7967368499703498
aI0
aF11.728087050646273
aI0
aF1.752634674735823
aI0
aI0
aI0
aI0
aI0
aF15.935757220373652
aI0
aI0
aF12.64930314635545
aF-4.3900103955603145
aF-10.273439859667517
aF-8.59724382178325
aI0
aI0
aI0
aI0
aF-5.993961427306569
aI0
aI0
aF-7.332411010377161
aI0
aI0
aI0
aI0
aI0
aI0
aI0
aI0
aI0
aI0
aF-5.588496319198405
aI0
aF-10.148658891029184
aI0
aI0
aF-5.588496319198405
aI0
aI0
aF5.077670695432414
aF4.895349138638459
aI0
aF-5.588496319198405
aI0
aI0
aF-4.665099601006815
aI0
aI0
aI0
aI0
aI0
aI0
aI0
aF-5.993961427306569
aI0
aI0
aF5.588496319198405
aI0
aF-9.462146786420412
aI0
aI0
aI0
aF0.0
aF5.300814246746624
aF-5.588496319198405
aF-3.519573126350836
aF4.895349138638459
aI0
aI0
aI0
aI0
aI0
aI0
aI0
aI0
aF0.9439377879642201
aI0
aI0
aI0
aF-5.588496319198405
aI0
aF0.0
aF0.0
aF3.5592343260372106
aI0
aF5.588496319198405
aF3.5960661545081987
aF10.148658891029184
aF-5.300814246746624
aF-3.8538952638102986
aF-15.933739066152881
aI0
aI0
aF-5.993961427306569
aI0
aF5.588496319198405
aI0
aI0
aI0
aI0
aF-10.148658891029184
aF-5.077670695432414
aI0
aI0
aF10.148658891029184
aI0
aI0
aI0
aF2.7208144988733105
aI0
aI0
aF-3.5960661545081987
aI0
aI0
aI0
aF6.506242806762738
aI0
aI0
aI0
aI0
aF4.895349138638459
aI0
aI0
aF-6.853946608533197
aF-1.149356360059452
aI0
aI0
aI0
aI0
aI0
aF-5.300814246746624
aF-4.6076670661866785
aI0
aI0
aI0
aI0
aF-3.8736504672220073
aF-19.25447938668654
aI0
aF5.300814246746624
aI0
aI0
aF-5.300814246746624
aF-3.7967368499703498
aI0
aI0
aF-12.214670458349786
aI0
aI0
aI0
aF-11.213249455359477
aI0
aF-5.993961427306569
aF3.7967368499703498
aF-5.993961427306569
aF-4.384523514872469
aF-9.890608676355898
aF5.300814246746624
aI0
aI0
aF4.895349138638459
aF4.384523514872469
aF2.9029189739482533
aI0
aF-24.62278400356578
aF-8.97976806106059
aI0
aF-5.993961427306569
aI0
aF8.59724382178325
aF-1.8327208904819852
aF-4.384523514872469
aF-2.220446049250313e-16
aI0
aF5.077670695432414
aI0
aI0
aF-10.148658891029184
aF5.993961427306569
aI0
aI0
aI0
aF4.741198458811201
aF-3.8538952638102986
aI0
aF-4.741198458811201
aI0
aF-5.077670695432414
aF5.993961427306569
aF-1.6713917461045247
aF-5.588496319198405
aI0
aI0
aI0
aF-3.914519885626733
aF3.9790584067643047
aF-7.262269465090749
aI0
aF4.6076670661866785
aF-5.993961427306569
aI0
aI0
aF-3.9626769765786154
aI0
aF-4.895349138638459
aI0
aF-5.588496319198405
aI0
aI0
aI0
aI0
aF-5.993961427306569
aI0
aI0
aI0
aF5.077670695432414
aI0
aI0
aF-4.6076670661866785
aF5.993961427306569
aF3.633571903445306
aF-11.53655037971073
aI0
aI0
aI0
aI0
aF8.59724382178325
aI0
aI0
aI0
aI0
aI0
aI0
aF5.588496319198405
aI0
aI0
aI0
aF9.462146786420412
aF-11.974451943715737
aF5.993961427306569
aI0
aF0.0
aI0
aI0
aI0
aF14.223595376433604
aI0
aI0
aF-18.1384037998344
aI0
aI0
aF-5.077670695432414
aI0
aI0
aI0
aF6.853946608533197
aI0
aI0
aF-21.388534637872873
aI0
aI0
aI0
aI0
aF-5.588496319198405
aF33.47592504653337
aI0
aF-5.993961427306569
aI0
aI0
aI0
aI0
aI0
aI0
aI0
aI0
aI0
aF0.0
aF-8.096102556502512
aI0
aI0
aI0
aF0.0
aF-5.588496319198405
aI0
aF4.895349138638459
aF12.64930314635545
aF12.409125568259569
aF0.0
aF0.0
aI0
aF7.0380449679987285
aF3.742669628700074
aI0
aI0
aF0.0
aF-5.588496319198405
aI0
aI0
aI0
aF-6.979422312642286
aI0
aF-5.300814246746624
aI0
aF10.148658891029184
aI0
aF-8.818792668688763
aI0
aI0
aF1.425572362559127
aF-5.993961427306569
aF-5.993961427306569
aI0
aI0
aF-3.1937914358862116
aF4.6076670661866785
aI0
aI0
aI0
aI0
aI0
aI0
aI0
aF4.741198458811201
aF0.0
aF1.9813384882893077
aI0
aI0
aF8.97976806106059
aI0
aF-5.993961427306569
aI0
aI0
aI0
aI0
aF-5.993961427306569
aI0
aI0
aI0
aI0
aI0
aI0
aI0
aF-2.735864889285087
aI0
aI0
aI0
aI0
aI0
aI0
aI0
aI0
aI0
aF5.993961427306569
aF5.851816984345904
aF-10.155341390864828
aI0
aF5.588496319198405
aI0
aI0
aF12.329559276528025
aI0
aI0
aF-5.588496319198405
aI0
aF5.588496319198405
aI0
aF5.0620396610040235
aI0
aI0
aI0
aI0
aI0
aI0
aF-5.993961427306569
aI0
aI0
aF3.914519885626733
aI0
aI0
aF0.0
aI0
aF5.588496319198405
aF-4.895349138638459
aF-5.993961427306569
aI0
aI0
aI0
aF9.215334132373357
aF-4.289213335068144
aI0
aF4.202201958078514
aI0
aF5.996458307505156
aI0
aI0
aF-4.6076670661866785
aI0
aF5.588496319198405
aF-10.148658891029184
aI0
aI0
aF12.64930314635545
aI0
aI0
aI0
aF4.6076670661866785
aF-5.384176420913061
aI0
aF-5.993961427306569
aI0
aI0
aI0
aF-5.993961427306569
aF5.077670695432414
aF-9.482396917622403
aF-5.343565686520437
aI0
aF-2.805895330281941
aI0
aI0
aI0
aI0
aI0
aI0
aI0
aI0
aI0
aI0
aF-5.993961427306569
aF-10.148658891029184
aI0
aI0
aI0
aI0
aI0
aF9.710882397516322
aI0
aI0
aF0.0
aI0
aI0
aF-7.602034487333492
aF-5.588496319198405
aI0
aI0
aI0
aF-10.148658891029184
aF-5.077670695432414
aF4.6076670661866785
aF4.895349138638459
aF6.4427454101335755
aF-14.198503561546069
aI0
aI0
aF-4.895349138638459
aI0
aI0
aF5.993961427306569
aI0
aI0
aI0
aI0
aF19.576417011124107
aF-11.728087050646273
aI0
aI0
aI0
aF16.904319063997768
aI0
aF16.149344784202775
aI0
aI0
aF5.993961427306569
aI0
aF-10.148658891029184
aF-7.018109555037138
aF0.0
aF3.9790584067643047
aF-5.077670695432414
aF-4.489884030530295
aF-5.077670695432414
aF10.601628493493248
aI0
aF5.993961427306569
aI0
aF4.384523514872469
aI0
aF-4.489884030530295
aF-7.018109555037138
aF5.588496319198405
aI0
aI0
aI0
aF-5.993961427306569
aI0
aF5.077670695432414
aF-4.895349138638459
aF-11.101581563047263
aI0
aF-4.895349138638459
aI0
aI0
aI0
aF8.975058696551036
aF-9.462146786420412
aF-13.143644904817437
aF-5.077670695432414
aI0
aF4.741198458811201
aF-4.489884030530295
aI0
aI0
aF0.0
aF-4.384523514872469
aI0
aI0
aI0
aI0
aF5.588496319198405
aF5.993961427306569
aI0
aF-3.5960661545081987
aF9.462146786420412
aI0
aI0
aI0
aF4.289213335068144
aF-8.404403916157028
aF-4.1221592504049775
aF-3.9790584067643047
aF-11.074129002937571
aF-10.148658891029184
aF0.0
aI0
aF-2.4197299301475175
aF5.993961427306569
aF5.993961427306569
aF5.119948445642846
aI0
aF-4.048051278251256
aI0
aI0
aF-12.774109636964813
aF6.853946608533198
aF0.0
aI0
aI0
aF5.588496319198405
aI0
aI0
aI0
aF5.300814246746624
aF-4.741198458811201
aI0
aI0
aF5.588496319198405
aF-4.6076670661866785
aI0
aF-8.142856975292235
aI0
aI0
aF-8.288546591942264
aI0
aI0
aF0.0
aI0
aI0
aF-5.300814246746624
aF5.993961427306569
aI0
aF-5.993961427306569
aI0
aF-5.588496319198405
aI0
aF9.234834188009172
aI0
aI0
aI0
aF-10.404698348994941
aI0
aF4.741198458811201
aF-5.993961427306569
aF4.202201958078514
aF0.0
aF-1.996573105513217
aF17.977484151686834
aI0
aI0
aF-12.371863008796076
aI0
aF9.215334132373357
aF3.4290120698450326
aF8.096102556502512
aI0
aI0
aI0
aF-6.506242806762737
aI0
aI0
aF2.4824159884755486
aF-12.116816948134085
aI0
aI0
aI0
aI0
aI0
aI0
aF0.0
aF-4.895349138638459
aF5.588496319198405
aF5.993961427306569
aF11.987922854613139
aF-5.077670695432414
aI0
aI0
aF-4.1221592504049775
aF0.0
aF14.970678514800296
aI0
aF-2.4676009026904078
aI0
aI0
aI0
aI0
aF-5.588496319198405
aI0
aI0
aI0
aI0
aF4.895349138638459
aI0
aF8.027546803011344
aF-1.0959020393952512
aF11.728087050646273
aF5.588496319198405
aF-5.588496319198405
aI0
aI0
aI0
aI0
aI0
aI0
aI0
aI0
aF-5.993961427306569
aF5.741922188246574
aI0
aI0
aI0
aI0
aF0.0
aI0
aF-4.289213335068144
aF12.965910456374571
aF5.588496319198405
aF-10.148658891029184
aI0
aI0
aF-8.994687461257733
aI0
aI0
aF5.993961427306569
aF0.0
aI0
aF-4.384523514872469
aI0
aI0
aI0
aF5.588496319198405
aI0
aI0
aF4.753319128367008
aF-0.6906565192474936
aI0
aF5.993961427306569
aF8.358423767787604
aF-5.300814246746624
aF11.17699263839681
aF-4.384523514872469
aI0
aF-7.485339257400148
aF0.0
aI0
aI0
aF5.588496319198405
aI0
aI0
aI0
aF10.148658891029184
aF-2.6316974428849966
aF-8.769047029744938
aI0
aI0
aI0
aI0
aI0
aF-5.588496319198405
aF-5.300814246746624
aF14.847287254610205
aI0
aI0
aI0
aI0
aI0
aF5.588496319198405
aI0
aF-2.5111098356681523
aI0
aI0
aF-1.1177378363617576
aF-5.993961427306569
aF-8.096102556502512
aF-5.993961427306569
aF4.741198458811201
aF-6.627858307594743
aI0
aI0
aI0
aI0
aI0
aF-5.993961427306569
aF-5.993961427306569
aI0
aF5.588496319198405
aF4.741198458811201
aF-7.829039771253466
aI0
aF-6.04284023666795
aF12.543341435947992
aF-8.975058696551036
aF3.914519885626733
aI0
aF-5.993961427306569
aI0
aF-7.967878610186826
aF0.0
aF7.739269976710192
aI0
aF-11.728087050646273
aF4.289213335068144
aF9.462146786420412
aF5.588496319198405
aF5.300814246746624
aI0
aI0
aF-2.3011188669744302
aF8.769047029744938
aI0
aF-8.00817155212297
aF-3.509054777518569
aF-5.588496319198405
aF-5.588496319198405
aI0
aI0
aI0
aF0.0
aI0
aI0
aF5.077670695432414
aI0
aI0
aI0
aI0
aF-5.993961427306569
aI0
aI0
aF10.148658891029184
aI0
aF5.993961427306569
aF5.077670695432414
aI0
aI0
aI0
aF14.45689807884821
aF-5.588496319198405
aF-8.027546803011344
aI0
aF-4.741198458811201
aF9.462146786420412
aI0
aF-10.148658891029184
aI0
aI0
aI0
aF0.0
aI0
aF-4.1221592504049775
aF-5.993961427306569
aI0
aI0
aF5.077670695432414
aF-7.80145850207289
aI0
aF5.588496319198405
aF-3.3198127778800406
aF-3.1317605463771008
aI0
aF0.0
aI0
aI0
aI0
aI0
aI0
aF-4.895349138638459
aI0
aI0
aI0
aF-3.9790584067643047
aI0
aI0
aF13.153570544617406
aI0
aI0
aF-10.148658891029184
aI0
aI0
aF-4.1221592504049775
aI0
aI0
aI0
aI0
aI0
aF-10.995249937959102
aF0.0
aF-11.44114188766704
aI0
aI0
aI0
aI0
aI0
aI0
aF-5.588496319198405
aF-2.4657884276133695
aI0
aI0
aF5.993961427306569
aF-5.993961427306569
aI0
aF-5.993961427306569
aF-5.993961427306569
aI0
aI0
aF-2.4386133658171554
aF5.993961427306569
aF12.856868585710693
aF-8.215059536211946
aF8.769047029744938
aI0
aF4.384523514872469
aI0
aI0
aI0
aI0
aF5.993961427306569
aI0
aF-5.590911402660334
aI0
aF8.288546591942264
aI0
aF-5.588496319198405
aI0
aF14.691135807486692
aF5.588496319198405
aI0
aI0
aI0
aI0
aF-5.993961427306569
aI0
aF0.0
aF2.3254423163637394
aI0
aI0
aF-4.6076670661866785
aF-6.506242806762737
aI0
aF7.118680526775956
aI0
aF-2.558667098514432
aF0.0
aI0
aI0
aI0
aI0
aI0
aF-4.130632544135471
aI0
aI0
aF5.588496319198405
aI0
aI0
aI0
aF-11.418971326965796
aF-5.993961427306569
aI0
aI0
aF-12.408950250609841
aF-5.300814246746624
aF4.741198458811201
aI0
aI0
aF-5.993961427306569
aI0
aI0
aF5.993961427306569
aI0
aI0
aI0
aF-8.975058696551036
aF5.300814246746624
aI0
aI0
aF10.148658891029184
aI0
aI0
aI0
aF-5.300814246746624
aI0
aI0
aI0
aI0
aF0.0
aI0
aI0
aF5.300814246746624
aI0
aI0
aF-10.148658891029184
aI0
aI0
aI0
aI0
aI0
aF-14.27587294329766
aI0
aI0
aI0
aF9.462146786420412
aI0
aI0
aI0
aI0
aI0
aF-13.050423800187467
aI0
aI0
aF-9.669706727190702
aF0.49158684698754884
aF-4.489884030530295
aI0
aI0
aI0
aF0.0
aF-4.895349138638459
aI0
aI0
aF4.699529192911995
aF10.273439859667517
aF-5.588496319198405
aF-5.588496319198405
aF-5.588496319198405
aF-10.148658891029184
aF3.8538952638102986
aF-8.027546803011344
aF-5.993961427306569
aF-5.993961427306569
aF-5.300814246746624
aF3.8538952638102986
aI0
aF-3.7967368499703498
aF3.391271741862185
aF1.1484487277992796
aI0
aF-3.2863483442001424
aF-5.300814246746624
aI0
aI0
aI0
aI0
aI0
aI0
aF-4.048051278251256
aI0
aF-5.993961427306569
aI0
aI0
aF-8.975058696551036
aF-8.59724382178325
aI0
aI0
aI0
aI0
aF-7.602034487333492
aI0
aF0.0
aI0
aF-5.993961427306569
aF-4.202201958078514
aI0
aI0
aI0
aF3.742669628700074
aI0
aF-8.65081405874681
aF5.588496319198405
aI0
aI0
aI0
aI0
aI0
aI0
aI0
aI0
aI0
aI0
aI0
aI0
aF-5.077670695432414
aI0
aI0
aF4.895349138638459
aI0
aI0
aI0
aI0
aF-5.300814246746624
aI0
aI0
aF-5.588496319198405
aI0
aI0
aI0
aI0
aI0
aI0
aF5.993961427306569
aF14.697813178418563
aI0
aF-9.051341556846285
aI0
aF-5.300814246746624
aF0.0
aI0
aI0
aF13.153570544617406
aF-3.5406878205540364
aF8.975058696551036
aI0
aI0
aI0
aF8.094872907088305
aI0
aF-5.993961427306569
aI0
aI0
aF-5.077670695432414
aI0
aF5.588496319198405
aF-6.571822452408719
aI0
aI0
aI0
aF-5.993961427306569
aI0
aI0
aF-4.741198458811201
aI0
aF-5.993961427306569
aF-1.8043066852801437
aI0
aI0
aI0
aI0
aF5.300814246746624
aI0
aI0
aI0
aI0
aF-5.590576619511776
aF-8.931111430501662
aF4.741198458811201
aI0
aI0
aF-12.116816948134085
aF4.6076670661866785
aI0
aI0
aF11.561685791430897
aF-3.5516143919373646
aI0
aI0
aI0
aI0
aI0
aF-5.077670695432414
aI0
aF5.300814246746624
aI0
aI0
aI0
aF-5.588496319198405
aF-4.6076670661866785
aI0
aI0
aF-5.993961427306569
aI0
aI0
aI0
aF-3.7967368499703498
aI0
aI0
aI0
aI0
aI0
aF5.588496319198405
aI0
aI0
aF-9.790698277276919
aI0
aF4.202201958078514
aI0
aI0
aI0
aI0
aI0
aI0
aI0
aF-5.993961427306569
aI0
aI0
aF5.588496319198405
aI0
aI0
aI0
aF-7.423643627305102
aI0
aF-5.993961427306569
aI0
aI0
aI0
aI0
aI0
aI0
aF-4.307322204837506
aI0
aI0
aF5.993961427306569
aF-17.37691191932884
aF-5.993961427306569
aI0
aF-7.370638096959926
aI0
aI0
aF11.728087050646273
aI0
aI0
aI0
aF-10.148658891029184
aF-6.627858307594743
aF-5.993961427306569
aI0
aF-5.300814246746624
aI0
aI0
aF-6.088669270612601
aI0
aF10.148658891029184
aF-7.602034487333492
aF6.047093923473737
aF11.228008886100222
aI0
aI0
aI0
aI0
aF-4.1221592504049775
aI0
aF11.17699263839681
aF-7.114946397464117
aI0
aF-5.993961427306569
aI0
aI0
aF-5.993961427306569
aI0
aI0
aI0
aI0
aF5.993961427306569
aF7.80145850207289
aI0
aF-5.993961427306569
aF5.588496319198405
aI0
aF4.991670105322761
aF4.6076670661866785
aF11.17699263839681
aI0
aI0
aF-5.300814246746624
aI0
aI0
aF-5.588496319198405
aF4.202201958078514
aF5.588496319198405
aI0
aF8.51235978886594
aF10.148658891029184
aI0
aI0
aI0
aF-5.588496319198405
aF-5.300814246746624
aI0
aI0
aF5.993961427306569
aI0
aI0
aI0
aI0
aF4.895349138638459
aF3.6425861701430913
aF0.0
aF2.4322914254674024
aI0
aI0
aI0
aI0
aI0
aI0
aF4.6076670661866785
aF-3.8538952638102986
aF-4.489884030530295
aF-3.0391201124326335
aF12.116816948134085
aI0
aF3.1937914358862116
aI0
aF0.0
aF5.077670695432414
aI0
aF6.858024139690064
aI0
aF10.601628493493248
aF4.6076670661866785
aF-5.588496319198405
aI0
aF-10.702161756500342
aI0
aF6.979422312642286
aI0
aI0
aI0
aF-5.993961427306569
aF-4.1221592504049775
aI0
aI0
aI0
aF11.17699263839681
aI0
aI0
aF-7.80145850207289
aI0
aI0
aF-5.993961427306569
aI0
aF-6.207179338820809
aI0
aI0
aF-3.1906010464000345
aF10.601628493493248
aI0
aI0
aI0
aI0
aI0
aF5.077670695432414
aI0
aI0
aI0
aF-4.90600420653851
aF-10.599576053071823
aF0.0
aI0
aI0
aI0
aI0
aI0
aI0
aI0
aI0
aF8.288546591942264
aI0
aF5.588496319198405
aF4.6076670661866785
aF3.9790584067643047
aF-5.119948445642846
aF-4.741198458811201
aI0
aI0
aI0
aI0
aI0
aI0
aI0
aF-4.289213335068144
aI0
aF11.80816714217757
aI0
aI0
aF6.014932142226884
aI0
aI0
aI0
aF0.0
aI0
aI0
aF0.0
aI0
aI0
aI0
aF0.0
aF-1.656670686474079
aI0
aI0
aI0
aI0
aI0
aF10.148658891029184
aI0
aI0
aI0
aF11.728087050646273
aF4.741198458811201
aF-5.993961427306569
aI0
aI0
aI0
aI0
aF-5.300814246746624
aI0
aI0
aI0
aI0
aI0
aI0
aF0.0
aI0
aF-3.7936878457103056
aF-4.289213335068144
aI0
aI0
aF5.300814246746624
aF8.975058696551036
aF5.993961427306569
aI0
aI0
aI0
aF5.993961427306569
aF6.853946608533197
aI0
aI0
aF1.9813384882893077
aF-8.769047029744938
aI0
aI0
aF5.300814246746624
aF0.0
aI0
aI0
aF-5.300814246746624
aI0
aF-5.300814246746624
aI0
aI0
aI0
aF-5.993961427306569
aF14.686047415915379
aI0
aI0
aF4.384523514872469
aI0
aF5.993961427306569
aI0
aF2.9029189739482533
aI0
aF5.993961427306569
aI0
aI0
aF-9.482396917622403
aF0.0
aI0
aF4.1221592504049775
aF6.4427454101335755
aF6.858024139690065
aF-1.844989302445538
aF-9.462146786420412
aI0
aI0
aI0
aI0
aI0
aI0
aI0
aI0
aI0
aI0
aI0
aI0
aF5.077670695432414
aF0.0
aF-10.148658891029184
aI0
aI0
aF2.8572630622373083
aI0
aI0
aI0
aF-5.588496319198405
aI0
aI0
aI0
aF5.993961427306569
aF6.215964273075765
aF-8.027546803011344
aI0
aI0
aI0
aI0
aI0
aF-5.300814246746624
aI0
aF4.489884030530295
aF5.588496319198405
aF17.509943720633746
aI0
aF5.300814246746624
aF-4.1221592504049775
aF-5.300814246746624
aI0
aI0
aF0.0
aF10.148658891029184
aI0
aF-8.404403916157028
aI0
aI0
aI0
aI0
aF5.300814246746624
aI0
aF9.462146786420412
aI0
aI0
aF-4.289213335068144
aI0
aF5.300814246746624
aI0
aF9.462146786420412
aI0
aI0
aI0
aI0
aF-15.552397162611623
aI0
aI0
aF-3.2863483442001424
aI0
aI0
aI0
aF3.588693822013688
aI0
aF0.0
aF16.774520488456552
aI0
aI0
aI0
aI0
aF10.273439859667517
aI0
aF3.7967368499703498
aI0
aI0
aF-2.4320563232005856
aI0
aF-7.778292136933242
aI0
aF4.489884030530295
aF4.895349138638459
aI0
aI0
aI0
aF5.993961427306569
aI0
aI0
aI0
aI0
aF-4.895349138638459
aI0
aF-9.482396917622403
aI0
aF-3.914519885626733
aI0
aF-3.6913763343125234
aI0
aI0
aF-15.794042663162406
aF8.5613158372769
aI0
aI0
aF7.967878610186826
aI0
aI0
aI0
aF7.114946397464117
aF11.17699263839681
aI0
aI0
aI0
aI0
aF-7.80145850207289
aF-5.300814246746624
aI0
aF0.506179234707834
aI0
aI0
aI0
aI0
aI0
aI0
aF5.300814246746624
aI0
aF4.1221592504049775
aF-4.384523514872469
aI0
aI0
aF8.975058696551036
aF9.45040098050454
aI0
aF-5.993961427306569
aI0
aI0
aF-6.954703130365766
aF8.65081405874681
aI0
aF8.027546803011344
aI0
aI0
aF0.0
aI0
aI0
aI0
aI0
aF0.0
aI0
aI0
aI0
aF4.895349138638459
aF5.993961427306569
aF0.0
aF-8.00817155212297
aI0
aI0
aF-5.300814246746624
aF-10.148658891029184
aI0
aI0
aI0
aI0
aI0
aI0
aI0
aI0
aF0.0
aI0
aF-7.602034487333492
aI0
aI0
aF5.300814246746624
aI0
aF-3.5960661545081987
aI0
aI0
aI0
aI0
aF-11.728087050646273
aI0
aI0
aF-10.892712288612572
aI0
aI0
aI0
aF5.993961427306569
aF-8.769047029744938
aI0
aF-6.979422312642286
aF-4.741198458811201
aF-5.993961427306569
aF-10.995249937959102
aF-11.649576813559355
aI0
aI0
aI0
aF10.148658891029184
aI0
aF-8.975058696551036
aF5.993961427306569
aI0
aI0
aF4.489884030530295
aI0
aI0
aF-5.993961427306569
aF5.588496319198405
aI0
aI0
aF-5.993961427306569
aF5.077670695432414
aF-5.077670695432414
aF-3.6425861701430913
aI0
aF8.59724382178325
aI0
aF10.148658891029184
aI0
aI0
aF5.993961427306569
aF2.081938421878423
aI0
aF4.6076670661866785
aF5.300814246746624
aI0
aI0
aI0
aF12.64930314635545
aI0
aF-5.993961427306569
aI0
aF-5.993961427306569
aF0.0
aI0
aI0
aI0
aI0
aI0
aF-2.9867534725727514
aI0
aI0
aF1.615310037900298
aI0
aI0
aI0
aF8.975058696551036
aI0
aF10.148658891029184
aI0
aI0
aF-4.384523514872469
aF-4.384523514872469
aI0
aI0
aF13.933999783472936
aI0
aI0
aI0
aI0
aI0
aI0
aI0
aF4.895349138638459
aF-1.537578262512481
aI0
aI0
aF6.875778796627229
aI0
aF2.805895330281941
aF5.588496319198405
aI0
aF5.300814246746624
aF-5.993961427306569
aI0
aI0
aI0
aI0
aI0
aF-5.077670695432414
aF5.993961427306569
aI0
aI0
aI0
aI0
aI0
aF4.384523514872469
aI0
aF-2.305081973192633
aI0
aI0
aI0
aF-4.202201958078514
aF10.601628493493248
aI0
aI0
aI0
aI0
aF1.0186939109056103
aF0.0
aF10.148658891029184
aF-3.7393783708023363
aF6.853946608533197
aI0
aF0.0
aF7.103228783874729
aF-10.148658891029184
aI0
aI0
aI0
aF-4.048051278251256
aI0
aI0
aI0
aF-4.501332651741713
aI0
aF5.578391423811998
aI0
aI0
aI0
aI0
aI0
aF5.588496319198405
aI0
aI0
aF15.247612240700644
aI0
aF0.0
aI0
aF-5.588496319198405
aI0
aF11.17699263839681
aI0
aI0
aF0.0
aF8.931111430501662
aI0
aI0
aI0
aF-4.384523514872469
aI0
aI0
aI0
aI0
aF-5.588496319198405
aF-5.077670695432414
aI0
aF5.300814246746624
aI0
aF-5.588496319198405
aF4.104759239273758
aI0
aI0
aF5.588496319198405
aI0
aI0
aI0
aI0
aI0
aI0
aI0
aF13.674914517215665
aI0
aF-4.204329964176786
aF-6.224300913606395
aF-5.300814246746624
aI0
aF-21.145655975838377
aF-2.8572630622373083
aF-10.569060742757303
aI0
aI0
aI0
aI0
aF-7.80145850207289
aI0
aF-5.588496319198405
aI0
aI0
aF1.9421764795032643
aF-5.300814246746624
aI0
aI0
aI0
aF-12.39015460943767
aF-5.588496319198405
aI0
aF-5.300814246746624
aI0
aF0.0
aF0.0
aF5.588496319198405
aF-5.993961427306569
aF5.993961427306569
aF7.829039771253466
aI0
aI0
aF-6.858024139690065
aI0
aF5.993961427306569
aF7.80145850207289
aI0
aF-8.465457976430885
aF-3.9790584067643047
aI0
aI0
aF5.993961427306569
aI0
aF0.0
aI0
aI0
aI0
aF-5.300814246746624
aF10.379107163904033
aI0
aI0
aF10.148658891029184
aI0
aF4.289213335068144
aI0
aI0
aI0
aF-3.5266966467250485
aF10.148658891029184
aI0
aI0
aF0.0
aI0
aI0
aI0
aI0
aI0
aF0.0
aI0
aI0
aF-11.728087050646273
aF-12.409125568259569
aI0
aF5.993961427306569
aI0
aF-3.914519885626733
aF10.148658891029184
aI0
aF5.993961427306569
aI0
aI0
aF0.0
aI0
aI0
aI0
aI0
aI0
aI0
aF4.741198458811201
aI0
aF18.847283993300945
aF-9.215334132373357
aI0
aI0
aF-6.953664838136481
aF-10.995249937959102
aI0
aI0
aI0
aI0
aI0
aI0
aI0
aI0
aI0
aF16.044099307465412
aI0
aF5.588496319198405
aI0
aF4.895349138638459
aI0
aI0
aF10.416887204960718
aI0
aI0
aF5.300814246746624
aF4.741198458811201
aI0
aI0
aF8.027546803011344
aI0
aI0
aI0
aF1.4885267324292286
aI0
aI0
aF12.366477751214934
aI0
aF11.728087050646273
aF-6.15238139044458
aF-5.300814246746624
aF11.4524356328232
aF5.588496319198405
aI0
aF9.94993734867549
aI0
aF5.993961427306569
aF-8.59724382178325
aI0
aI0
aI0
aI0
aF0.0
aF-4.741198458811201
aI0
aI0
aI0
aF19.48805120665853
aI0
aF9.669706727190702
aF-5.300814246746624
aF-5.077670695432414
aI0
aI0
aI0
aF-5.993961427306569
aI0
aF-4.895349138638459
aI0
aF5.993961427306569
aF5.993961427306569
aF2.7580731159320258
aI0
aF-12.64930314635545
aI0
aI0
aF5.588496319198405
aF0.0
aI0
aF5.588496319198405
aI0
aI0
aF-5.993961427306569
aI0
aF-4.895349138638459
aF-0.6851291036051257
aI0
aF-5.300814246746624
aF-5.993961427306569
aI0
aI0
aI0
aF10.273439859667517
aI0
aI0
aF-6.858024139690065
aI0
aF5.300814246746624
aF-5.588496319198405
aI0
aI0
aI0
aI0
aF34.05202796102371
aF4.741198458811201
aF5.300814246746624
aI0
aI0
aF0.0
aF-3.5516143919373646
aI0
aI0
aI0
aF-5.300814246746624
aI0
aF3.9790584067643047
aI0
aI0
aI0
aF10.601628493493248
aF-4.741198458811201
aI0
aF4.741198458811201
aI0
aF5.588496319198405
aI0
aI0
aI0
aI0
aI0
aI0
aI0
aF8.265848925426566
aF5.993961427306569
aI0
aF-4.489884030530295
aF-5.588496319198405
aF-4.9352018053808155
aI0
aI0
aF14.138251605481098
aI0
aF-5.993961427306569
aF-4.741198458811201
aI0
aI0
aI0
aF-5.300814246746624
aI0
aF-3.6600587975681083
aF-5.077670695432414
aI0
aF0.0
aF-6.250043432826955
aI0
aI0
aI0
aF-4.895349138638459
aI0
aI0
aF-5.993961427306569
aI0
aI0
aI0
aI0
aF-5.993961427306569
aF5.993961427306569
aF-2.028085221926083
aF8.975058696551036
aI0
aI0
aI0
aF3.4682327829983137
aI0
aI0
aF6.895853678784966
aF8.769047029744938
aF5.077670695432414
aI0
aF-10.601628493493248
aI0
aF3.9790584067643047
aF-5.588496319198405
aI0
aI0
aF0.0
aI0
aI0
aI0
aI0
aI0
aI0
aF4.1221592504049775
aF-8.818792668688763
aF-4.489884030530295
aF4.289213335068144
aF-7.5934736999406995
aF4.47677823051395
aI0
aI0
aF-5.588496319198405
aI0
aF0.0
aI0
aF4.741198458811201
aI0
aF4.384523514872469
aI0
aF5.588496319198405
aI0
aI0
aF14.524538930181498
aF-4.6076670661866785
aI0
aI0
aI0
aI0
aI0
aI0
aI0
aI0
aI0
aI0
aF5.588496319198405
aI0
aI0
aI0
aF-7.423643627305102
aI0
aI0
aI0
aI0
aI0
aI0
aF-10.148658891029184
aF-4.202201958078514
aI0
aI0
aF-5.993961427306569
aI0
aI0
aF-10.148658891029184
aI0
aI0
aI0
aF-4.289213335068144
aI0
aF6.966999891736468
aF5.993961427306569
aI0
aI0
aI0
aF0.0
aF3.162412488088668
aI0
aF-5.077670695432414
aI0
aI0
aI0
aI0
aI0
aF-9.790698277276919
aI0
aF0.0
aI0
aI0
aI0
aF15.233012086297244
aI0
aI0
aI0
aI0
aI0
aF4.1221592504049775
aF0.0
aF-5.300814246746624
aI0
aI0
aF-5.077670695432414
aF-10.148658891029184
aF5.300814246746624
aI0
aI0
aF-5.077670695432414
aF5.993961427306569
aI0
aF-8.661514706979904
aI0
aI0
aI0
aI0
aI0
aI0
aI0
aI0
aF-7.829039771253466
aI0
aF-5.993961427306569
aI0
aF-7.935356644817894
aI0
aI0
aI0
aI0
aF-5.588496319198405
aF-5.993961427306569
aF-7.485339257400148
aI0
aI0
aF-5.300814246746624
aI0
aI0
aF-5.993961427306569
aF-5.300814246746624
aI0
aI0
aI0
aI0
aF-12.586349748454133
aI0
aF9.462146786420412
aI0
aF5.077670695432414
aI0
aI0
aF0.0
aI0
aF0.0
aF5.300814246746624
aF5.993961427306569
aI0
aF5.588496319198405
aI0
aI0
aF5.993961427306569
aI0
aI0
aI0
aF8.975058696551036
aI0
aF-5.993961427306569
aI0
aI0
aI0
aF5.993961427306569
aI0
aI0
aI0
aI0
aF-10.601628493493248
aF-5.993961427306569
aI0
aI0
aI0
aI0
aI0
aF16.055093606022687
aI0
aI0
aI0
aI0
aF11.17699263839681
aI0
aI0
aF0.3726115220590942
aI0
aI0
aI0
aF5.588496319198405
aI0
aI0
aF-0.7439427915851855
aF-8.404403916157028
aI0
aI0
aF-5.993961427306569
aI0
aF-5.300814246746624
aI0
aI0
aI0
aF-9.482396917622403
aF12.371863008796076
aI0
aF-4.6076670661866785
aI0
aI0
aI0
aF6.8270405536653875
aI0
aF-6.250043432826955
aI0
aI0
aF0.0
aI0
aI0
aI0
aI0
aF5.993961427306569
aI0
aI0
aF7.114946397464117
aF-13.116634678019603
aI0
aF-6.167434503924425
aI0
aF-5.993961427306569
aI0
aF5.588496319198405
aF0.0
aI0
aI0
aI0
aI0
aI0
aI0
aI0
aF5.300814246746624
aF-5.588496319198405
aI0
aI0
aF5.993961427306569
aI0
aI0
aF-11.561685791430897
aF-5.909498286731255
aF-8.97976806106059
aI0
aF5.588496319198405
aF-4.6076670661866785
aF-7.967878610186826
aF-2.4651133080140752
aF-4.048051278251256
aF-9.964571116372909
aI0
aI0
aF4.39694447626875
aI0
aI0
aI0
aF-2.7580731159320258
aI0
aF9.790698277276919
aI0
aF5.993961427306569
aF-18.306292641009662
aI0
aI0
aI0
aF0.0
aI0
aI0
aI0
aI0
aI0
aF-5.993961427306569
aF4.1221592504049775
aI0
aI0
aI0
aF5.993961427306569
aF-5.993961427306569
aI0
aI0
aI0
aI0
aF-5.077670695432414
aI0
aI0
aF8.288546591942264
aI0
aF-10.995249937959102
aF-10.155341390864828
aI0
aI0
aF-4.741198458811201
aI0
aF11.80816714217757
aI0
aI0
aI0
aF-10.527164332555706
aF0.0
aF9.215334132373357
aI0
aI0
aI0
aF-5.982019834979484
aI0
aF5.588496319198405
aI0
aI0
aI0
aF5.993961427306569
aF-3.914519885626733
aF0.0
aI0
aF5.993961427306569
aF4.895349138638459
aF7.27847593836186
aI0
aF-9.744402405706062
aI0
aI0
aI0
aF10.148658891029184
aF5.588496319198405
aF6.78254348372437
aI0
aI0
aI0
aF0.0
aI0
aF-5.588496319198405
aI0
aI0
aF5.993961427306569
aI0
aI0
aI0
aF-9.215334132373357
aI0
aI0
aF-15.315858877399558
aI0
aF-4.384523514872469
aI0
aI0
aF-4.895349138638459
aI0
aI0
aF4.895349138638459
aI0
aI0
aF-4.6076670661866785
aI0
aI0
aF12.95945575802311
aF-9.462146786420412
aF0.0
aI0
aF-5.300814246746624
aI0
aF-0.31464287816552927
aI0
aF-5.588496319198405
aF-4.289213335068144
aF5.300814246746624
aI0
aF8.975058696551036
aI0
aF5.993961427306569
aI0
aF-13.919309946552069
aI0
aF-5.993961427306569
aI0
aI0
aF10.148658891029184
aF6.506242806762737
aF-7.423643627305102
aI0
aI0
aI0
aF-4.6076670661866785
aF-5.993961427306569
aI0
aI0
aI0
aF-1.9401631409731297
aI0
aI0
aF-5.588496319198405
aI0
aI0
aI0
aF-11.36082499292494
aI0
aF-3.914519885626733
aF25.56686841335797
aF0.0
aI0
aI0
aI0
aF-7.602034487333492
aI0
aI0
aI0
aF-5.993961427306569
aI0
aF-5.993961427306569
aI0
aI0
aI0
aI0
aI0
aF5.993961427306569
aI0
aI0
aF8.59724382178325
aF5.588496319198405
aF-2.6316974428849966
aI0
aI0
aI0
aI0
aF0.0
aI0
aI0
aI0
aF-4.384523514872469
aI0
aF-7.018109555037138
aI0
aI0
aI0
aI0
aF0.0
aF-5.993961427306569
aI0
aF-5.993961427306569
aF0.0
aI0
aF5.993961427306569
aF-8.244318500809955
aI0
aI0
aI0
aF-8.037208232845629
aI0
aF-3.4682327829983137
aI0
aF4.393298082889363
aI0
aF5.300814246746624
aI0
aI0
aI0
aF-8.769047029744938
aF-6.979422312642286
aI0
aF5.993961427306569
aI0
aI0
aF-7.018109555037138
aI0
aF-8.495290157696736
aF4.741198458811201
aI0
aI0
aF11.17699263839681
aI0
aI0
aI0
aF-4.895349138638459
aI0
aF-3.6913763343125234
aI0
aF4.048051278251256
aI0
aI0
aI0
aI0
aF5.993961427306569
aI0
aI0
aF6.73713152269633
aI0
aF14.223595376433604
aF-5.077670695432414
aI0
aI0
aF8.65081405874681
aI0
aI0
aI0
aI0
aF-5.588496319198405
aF4.289213335068144
aI0
aF-5.993961427306569
aF-1.984893267725253
aF5.993961427306569
aI0
aF-10.349830997990342
aF-5.588496319198405
aF11.728087050646273
aI0
aI0
aF8.975058696551036
aI0
aI0
aI0
aI0
aF8.288546591942264
aF-4.964831976951097
aI0
aI0
aI0
aF0.0
aF0.0
aF-5.077670695432414
aI0
aI0
aI0
aF-3.2859112262043593
aI0
aF3.2531214033813685
aI0
aF-13.676823506341446
aI0
aF-5.588496319198405
aI0
aF-9.341196729562753
aI0
aF-9.42252580116558
aI0
aI0
aI0
aI0
aF-3.509054777518569
aI0
aF-4.066296515417982
aI0
aF5.993961427306569
aI0
aI0
aF4.384523514872469
aF-3.519573126350836
aF-5.993961427306569
aF5.993961427306569
aF5.588496319198405
aF5.588496319198405
aI0
aF5.993961427306569
aI0
aI0
aI0
aI0
aI0
aI0
aI0
aF5.588496319198405
aF-5.993961427306569
aI0
aI0
aI0
aF-5.993961427306569
aI0
aF-5.588496319198405
aI0
aF-2.805895330281941
aI0
aI0
aF-4.741198458811201
aF4.384523514872469
aI0
aI0
aF-4.489884030530295
aF9.438785446794919
aI0
aF3.1121504568031977
aI0
aF5.993961427306569
aF0.0
aI0
aF-6.039306636208931
aI0
aI0
aI0
aI0
aF-10.148658891029184
aI0
aF5.993961427306569
aF-8.215059536211946
aF-7.5934736999406995
aI0
aI0
aF4.839805699666727
aI0
aI0
aF5.760892236192389
aI0
aI0
aI0
aF-4.202201958078514
aI0
aI0
aI0
aF-5.588496319198405
aF11.317148355542631
aI0
aF-7.114946397464117
aI0
aI0
aF5.588496319198405
aI0
aI0
aI0
aF11.101581563047263
aI0
aI0
aF5.993961427306569
aF-4.202201958078514
aF-5.993961427306569
aI0
aI0
aI0
aI0
aI0
aI0
aI0
aF-5.993961427306569
aI0
aI0
aI0
aF-5.993961427306569
aI0
aI0
aI0
aF-7.262269465090749
aI0
aI0
aI0
aF5.993961427306569
aI0
aI0
aF-5.077670695432414
aI0
aF-4.517487005177278
aI0
aI0
aF3.8538952638102986
aF-7.80145850207289
aF4.384523514872469
aI0
aI0
aI0
aF-5.993961427306569
aF-8.975058696551036
aF-12.404700105699646
aI0
aI0
aI0
aF9.215334132373357
aF2.4617915022075088
aI0
aI0
aF0.0
aF4.741198458811201
aI0
aF5.993961427306569
aF-5.588496319198405
aI0
aF13.050423800187469
aF8.027546803011344
aF-5.588496319198405
aF-5.588496319198405
aI0
aF-5.300814246746624
aI0
aI0
aF-12.64930314635545
aF0.0
aI0
aI0
aI0
aF-8.975058696551036
aF7.958116813528609
aF-5.993961427306569
aI0
aI0
aI0
aI0
aF-4.202201958078514
aI0
aI0
aI0
aI0
aI0
aI0
aI0
aF5.288114680063929
aI0
aI0
aI0
aI0
aF10.148658891029184
aI0
aF4.6076670661866785
aF-8.096102556502512
aF-10.148658891029184
aF-4.985206232208805
aI0
aF-5.588496319198405
aF-5.588496319198405
aF-4.895349138638459
aF-5.588496319198405
aF6.5954167144031235
aF5.993961427306569
aF9.462146786420412
aF3.6742444498044122
aI0
aI0
aF9.462146786420412
aF6.15238139044458
aF0.0
aI0
aF2.3602439003052575
aI0
aF-5.300814246746624
aI0
aI0
aI0
aI0
aI0
aI0
aF9.462146786420412
aF-6.639625555760081
aF-8.288546591942264
aI0
aI0
aF17.389434908895915
aF-6.556790322683346
aI0
aI0
aI0
aI0
aF-8.940744422734511
aF-5.077670695432414
aF5.588496319198405
aI0
aI0
aF-5.300814246746624
aF8.288546591942264
aF-5.588496319198405
aI0
aI0
aI0
aF-8.975058696551036
aF9.94993734867549
aF-4.741198458811201
aI0
aF5.588496319198405
aI0
aF-3.3549040976913105
aF18.75258521264808
aF-3.07619069522229
aF0.0
aI0
aI0
aI0
aI0
aI0
aF-8.975058696551036
aI0
aI0
aF0.0
aI0
aI0
aI0
aF-6.567544710626271
aF-3.9790584067643047
aI0
aI0
aI0
aF0.0
aF-10.273439859667517
aI0
aI0
aI0
aI0
aF-4.202201958078514
aF2.9127444393856035
aI0
aI0
aI0
aI0
aF-5.588496319198405
aI0
aI0
aI0
aI0
aI0
aI0
aI0
aF-7.103228783874729
aI0
aI0
aF3.914519885626733
aI0
aI0
aF5.993961427306569
aI0
aI0
aF17.113061467607277
aI0
aI0
aI0
aI0
aI0
aF-9.99267769623815
aI0
aI0
aI0
aI0
aF5.300814246746624
aI0
aF-9.94993734867549
aF5.300814246746624
aI0
aF-5.077670695432414
aI0
aF-10.148658891029184
aI0
aI0
aF-11.17699263839681
aI0
aI0
aI0
aI0
aI0
aF-4.741198458811201
aF5.993961427306569
aF5.993961427306569
aF-5.993961427306569
aF5.300814246746624
aI0
aF-5.993961427306569
aI0
aI0
aI0
aF9.830138152268908
aF-12.981166560799123
aF4.048051278251256
aF-3.2531214033813685
aF-2.973536541162207
aF-5.588496319198405
aI0
aI0
aF12.768745261822545
aI0
aF4.489884030530295
aI0
aF5.077670695432414
aF-0.7271247296881587
aI0
aI0
aF-5.300814246746624
aI0
aI0
aI0
aI0
aI0
aF0.0
aI0
aI0
aI0
aI0
aF4.741198458811201
aI0
aF13.249866419516966
aF5.077670695432414
aI0
aI0
aI0
aI0
aF-6.987159006823352
aI0
aI0
aI0
aF-8.027546803011344
aI0
aF4.741198458811201
aI0
aF-3.472436685643009
aF5.588496319198405
aF0.0
aF-11.566052632041465
aF3.951330871655237
aF-3.7967368499703498
aF-3.9790584067643047
aF6.858024139690065
aI0
aF-3.5960661545081987
aF4.384523514872469
aF-4.741198458811201
aF-10.273439859667517
aI0
aF-4.489884030530295
aF5.300814246746624
aI0
aF-7.829039771253466
aF-11.217131171487091
aF7.485339257400148
aF-3.7967368499703498
aI0
aI0
aI0
aI0
aF-5.993961427306569
aF-3.9790584067643047
aI0
aI0
aI0
aF5.993961427306569
aI0
aF7.423643627305102
aF-0.024783464590326997
aI0
aI0
aI0
aF11.17699263839681
aI0
aF10.148658891029184
aI0
aF8.244318500809957
aI0
aI0
aF-5.993961427306569
aF5.993961427306569
aI0
aI0
aI0
aI0
aI0
aI0
aF-6.4427454101335755
aI0
aF3.3549040976913105
aF-5.993961427306569
aF-12.116816948134085
aI0
aF-10.273439859667517
aF-3.393197453303805
aI0
aI0
aF-3.8538952638102995
aI0
aI0
aI0
aI0
aI0
aI0
aF-5.557690652409466
aI0
aF-5.5635313282181835
aI0
aF14.27737379337738
aI0
aF0.0
aF13.666637312971321
aF5.588496319198405
aI0
aI0
aI0
aI0
aI0
aF-4.1221592504049775
aI0
aI0
aF16.19269065705004
aI0
aI0
aI0
aF3.6425861701430913
aI0
aI0
aI0
aF4.895349138638459
aI0
aI0
aI0
aI0
aI0
aI0
aI0
aF5.077670695432414
aF5.993961427306569
aI0
aI0
aI0
aF-4.384523514872469
aI0
aF-5.300814246746624
aF-5.993961427306569
aI0
aI0
aF0.0
aI0
aF-5.588496319198405
aI0
aI0
aI0
aF-5.300814246746624
aF-10.304938974772814
aF-4.6076670661866785
aI0
aF0.0
aI0
aF-7.746767737286903
aI0
aI0
aF0.0
aF5.300814246746624
aF0.9200150691563476
aI0
aI0
aF0.0
aF11.728087050646273
aI0
aI0
aI0
aF5.825488878771208
aI0
aI0
aI0
aF5.300814246746624
aI0
aI0
aI0
aF-1.959720789154174
aI0
aI0
aF-4.895349138638459
aI0
aI0
aF3.509054777518569
aI0
aI0
aI0
aF3.4682327829983137
aI0
aI0
aI0
aI0
aI0
aI0
aI0
aI0
aI0
aF5.300814246746624
aI0
aI0
aI0
aI0
aF-4.6076670661866785
aI0
aF5.993961427306569
aI0
aF3.393197453303805
aF-5.993961427306569
aI0
aI0
aI0
aI0
aI0
aF-7.80145850207289
aF7.665695933603399
aI0
aF-5.077670695432414
aI0
aI0
aF7.215073065373867
aI0
aI0
aF0.0
aF4.489884030530295
aF-8.59724382178325
aI0
aF1.5557392849934537
aI0
aF-0.9783781479293037
aF-5.993961427306569
aI0
aF5.300814246746624
aI0
aF4.202201958078514
aI0
aI0
aI0
aI0
aF5.300814246746624
aF-16.36277433934979
aF10.148658891029184
aI0
aF-7.854412475214888
aF5.510565950284377
aI0
aI0
aF-15.933739066152881
aI0
aI0
aI0
aI0
aI0
aF-4.895349138638459
aF-5.588496319198405
aF5.588496319198405
aF-2.973056130022605
aI0
aF7.315840097451466
aI0
aI0
aI0
aI0
aF-5.993961427306569
aI0
aI0
aI0
aI0
aF5.588496319198405
aI0
aI0
aI0
aF2.4322914254674024
aI0
aI0
aI0
aI0
aI0
aF9.462146786420412
aI0
aF-5.300814246746624
aF12.240584796443802
aF-8.382366568851294
aI0
aI0
aI0
aI0
aI0
aF-5.993961427306569
aF-7.039146252701671
aF-9.42252580116558
aF-5.588496319198405
aF0.0
aI0
aI0
aF-8.993297753282999
aF-3.742669628700074
aF4.895349138638459
aI0
aI0
aI0
aF5.993961427306569
aI0
aF-5.588496319198405
aI0
aI0
aI0
aF5.993961427306569
aF-8.482384954337864
aF-5.025442675941755
aI0
aF4.202201958078514
aI0
aF15.050643105618818
aI0
aF5.077670695432414
aF7.3309451306893045
aI0
aI0
aI0
aI0
aF-6.088669270612601
aF5.993961427306569
aI0
aF-4.895349138638459
aF-3.5960661545081987
aF-5.993961427306569
aI0
aI0
aI0
aI0
aF-7.2851723402861825
aF-5.993961427306569
aI0
aF3.5960661545081987
aF10.148658891029184
aI0
aI0
aF0.0
aI0
aF-19.14947775850839
aF0.0
aI0
aI0
aI0
aF5.993961427306569
aI0
aF2.998229153752578
aI0
aF-5.588496319198405
aF-3.742669628700074
aI0
aF5.993961427306569
aI0
aF-1.709463431398833
aF-10.148658891029184
aI0
aI0
aI0
aI0
aI0
aF3.4682327829983137
aF-0.9009513644044853
aF-5.993961427306569
aF-6.627858307594743
aF5.993961427306569
aF5.588496319198405
aF-6.853946608533197
aI0
aI0
aI0
aF-4.741198458811201
aF1.0251072356159883
aI0
aI0
aF-7.114946397464117
aF4.741198458811201
aF2.4244287308251993
aI0
aF8.288546591942264
aI0
aI0
aI0
aI0
aI0
aF-4.895349138638459
aI0
aI0
aF-6.250043432826955
aF11.716073611698178
aF-9.759364210144106
aF-16.765488957595213
aI0
aF-3.6913763343125234
aI0
aI0
aF10.148658891029184
aF-4.202201958078514
aI0
aF-10.601628493493248
aI0
aF15.050643105618818
aI0
aI0
aI0
aF-8.434292085664364
aI0
aF-5.588496319198405
aI0
aF12.72041075802888
aF8.92060962348662
aI0
aF4.202201958078514
aF-1.8119112846653629
aF-7.266446555070668
aF-5.300814246746624
aF5.993961427306569
aI0
aI0
aI0
aF-5.993961427306569
aF4.1221592504049775
aI0
aI0
aI0
aF-7.80145850207289
aI0
aI0
aF9.42252580116558
aI0
aI0
aI0
aF10.148658891029184
aF5.588496319198405
aI0
aI0
aI0
aI0
aF6.853946608533197
aI0
aI0
aF-5.588496319198405
aI0
aI0
aI0
aF0.0
aI0
aI0
aF3.07619069522229
aI0
aI0
aI0
aF-5.049696667562666
aF-7.103228783874729
aF-8.975058696551036
aF-8.087831959872121
aF5.077670695432414
aF-7.889474253138813
aI0
aF4.384523514872469
aI0
aI0
aI0
aF9.482396917622403
aI0
aI0
aF-6.0886692706126
aI0
aI0
aI0
aF-3.391271741862185
aF-1.389606971497942
aF-5.077670695432414
aF4.489884030530295
aI0
aF11.17699263839681
aI0
aI0
aF5.993961427306569
aF5.993961427306569
aI0
aI0
aI0
aF5.993961427306569
aI0
aI0
aF5.993961427306569
aF-10.155341390864828
aF3.393197453303805
aI0
aI0
aF11.551482800158894
aI0
aF10.148658891029184
aI0
aI0
aI0
aF9.215334132373357
aI0
aF-7.114946397464117
aF-4.1221592504049775
aI0
aF5.300814246746624
aF5.077670695432414
aI0
aI0
aF3.742669628700074
aI0
aF-5.588496319198405
aF5.300814246746624
aF-10.148658891029184
aF-5.077670695432414
aI0
aF-10.563138476946149
aI0
aI0
aI0
aF-4.1221592504049775
aF-5.588496319198405
aF-9.462146786420412
aF-8.975058696551036
aI0
aI0
aF-5.993961427306569
aI0
aF-3.5960661545081987
aI0
aF-5.588496319198405
aF-4.741198458811201
aF-5.300814246746624
aI0
aI0
aI0
aF0.0
aI0
aI0
aI0
aI0
aI0
aF5.588496319198405
aI0
aF-4.6076670661866785
aI0
aI0
aI0
aF-9.669706727190702
aF3.914519885626733
aF5.588496319198405
aI0
aI0
aF-5.730532054653752
aI0
aI0
aF-2.558667098514432
aF-5.993961427306569
aI0
aF-5.300814246746624
aF-5.8722285580591675
aI0
aI0
aF5.993961427306569
aF5.077670695432414
aI0
aI0
aF-8.288546591942264
aF-5.993961427306569
aI0
aF-5.993961427306569
aI0
aI0
aI0
aF0.0
aI0
aI0
aI0
aI0
aI0
aF0.0
aF0.0
aF-9.462146786420412
aI0
aF-4.489884030530295
aF5.993961427306569
aF-7.019524395642631
aI0
aF5.300814246746624
aI0
aF4.6076670661866785
aI0
aI0
aF8.59724382178325
aF4.895349138638459
aI0
aI0
aI0
aF-5.300814246746624
aF-8.931111430501662
aI0
aF-5.993961427306569
aI0
aF5.300814246746624
aI0
aI0
aI0
aI0
aI0
aI0
aI0
aI0
aI0
aF-5.588496319198405
aF0.877128723088112
aI0
aF4.1221592504049775
aI0
aI0
aI0
aI0
aF8.288546591942264
aI0
aI0
aF-8.288546591942264
aF10.148658891029184
aI0
aI0
aI0
aF-5.588496319198405
aF0.0
aI0
aF4.741198458811201
aF9.641769955401838
aF-1.6994584944926299
aI0
aI0
aF-5.993961427306569
aF5.993961427306569
aI0
aF5.993961427306569
aI0
aI0
aI0
aF7.644376099194798
aI0
aI0
aF5.588496319198405
aF11.728087050646273
aF5.300814246746624
aF-5.300814246746624
aI0
aF5.588496319198405
aI0
aF-5.588496319198405
aF3.7967368499703498
aI0
aI0
aI0
aI0
aF8.096102556502512
aI0
aI0
aI0
aI0
aI0
aI0
aF-5.300814246746624
aI0
aI0
aI0
aI0
aI0
aF2.973056130022605
aF-5.300814246746624
aF-5.0620396610040235
aI0
aF-13.137262668151923
aF6.709808195382621
aI0
aI0
aI0
aI0
aF10.981708093285178
aI0
aF3.6913763343125234
aF5.588496319198405
aF-5.485397039829826
aI0
aF-5.300814246746624
aI0
aF-5.077670695432414
aF-7.5934736999406995
aI0
aF-5.993961427306569
aF-8.940744422734511
aF0.0
aI0
aI0
aF-4.895349138638459
aI0
aF-11.728087050646273
aF5.300814246746624
aI0
aI0
aI0
aF5.993961427306569
aI0
aF-5.993961427306569
aF-6.525211900093734
aF-5.741922188246573
aF-4.895349138638459
aI0
aF-10.656062119244412
aI0
aI0
aI0
aI0
aI0
aF0.0
aI0
aI0
aI0
aI0
aF-4.384523514872469
aI0
aI0
aF0.0
aI0
aI0
aF-2.6797754226340436
aF-4.384523514872469
aI0
aI0
aF8.098624547998325
aF5.300814246746624
aI0
aI0
aF10.148658891029184
aI0
aI0
aF11.17699263839681
aI0
aI0
aF3.4290120698450326
aI0
aI0
aI0
aF-4.202201958078514
aF-4.895349138638459
aI0
aF-5.588496319198405
aF16.657627682790846
aI0
aI0
aF-5.300814246746624
aI0
aF-5.300814246746624
aF-10.901997886784454
aF4.289213335068144
aI0
aI0
aI0
aI0
aF3.8736504672220073
aI0
aF-8.984186040973922
aF-3.8538952638102995
aI0
aI0
aI0
aF10.148658891029184
aI0
aI0
aF5.588496319198405
aI0
aF5.588496319198405
aI0
aF2.973536541162207
aF-5.077670695432414
aI0
aF-3.160748083250353
aF-4.048051278251256
aI0
aI0
aI0
aF-17.027191612212416
aI0
aF-5.9413462029859705
aF2.7471890615506176
aF9.94993734867549
aI0
aI0
aF19.34590006385722
aI0
aF10.148658891029184
aI0
aI0
aF-5.588496319198405
aI0
aI0
aI0
aI0
aF9.929663953902196
aI0
aI0
aI0
aI0
aI0
aI0
aI0
aF-3.0391201124326335
aI0
aI0
aI0
aI0
aF-3.023546961736868
aI0
aI0
aI0
aI0
aF-6.853946608533197
aF-4.741198458811201
aI0
aI0
aF-8.578426670136288
aI0
aI0
aF4.895349138638459
aI0
aF-0.8705294833806025
aF-10.148658891029184
aF9.215334132373357
aF-5.077670695432414
aI0
aI0
aF-5.588496319198405
aI0
aI0
aF-5.993961427306569
aF5.588496319198405
aF-8.975058696551036
aI0
aI0
aF-2.2132567250977253
aI0
aI0
aI0
aF-7.196166867768057
aI0
aF-8.975058696551036
aF-11.483844376493147
aF3.6425861701430913
aI0
aI0
aI0
aI0
aI0
aF-3.9790584067643047
aI0
aI0
aI0
aI0
aI0
aI0
aI0
aF-5.077670695432414
aF7.829039771253466
aI0
aI0
aI0
aI0
aF-5.993961427306569
aF-13.219498624739453
aI0
aI0
aI0
aF-13.181450950694746
aI0
aF-10.148658891029184
aI0
aI0
aI0
aF-5.077670695432414
aF-5.588496319198405
aF-5.300814246746624
aI0
aF-4.895349138638459
aI0
aF5.588496319198405
aF-13.666637312971321
aI0
aI0
aF-5.993961427306569
aI0
aI0
aI0
aI0
aI0
aF9.45040098050454
aI0
aI0
aI0
aF15.825236691138059
aF-0.9790449267962389
aI0
aI0
aI0
aI0
aI0
aI0
aI0
aI0
aF-5.300814246746624
aI0
aI0
aI0
aI0
aI0
aI0
aF5.588496319198405
aI0
aI0
aI0
aI0
aI0
aF-11.124353918169456
aI0
aF11.17699263839681
aI0
aI0
aI0
aF-10.148658891029184
aF0.0
aI0
aI0
aI0
aF-12.64930314635545
aI0
aF-5.300814246746624
aF-2.8572630622373083
aI0
aI0
aF3.6913763343125234
aI0
aI0
aI0
aF-6.525211900093734
aF4.895349138638459
aF4.895349138638459
aI0
aF-5.993961427306569
aI0
aI0
aF5.588496319198405
aF-4.202201958078514
aF4.895349138638459
aF-8.975058696551036
aI0
aI0
aI0
aF-8.818792668688763
aI0
aI0
aI0
aI0
aF-5.993961427306569
aF4.289213335068144
aI0
aI0
aF-4.962591840315347
aI0
aI0
aI0
aF-0.3137395424822208
aI0
aI0
aI0
aI0
aF-3.9790584067643047
aF0.0
aI0
aF-4.384523514872469
aI0
aI0
aI0
aF5.993961427306569
aI0
aI0
aI0
aF2.8572630622373083
aI0
aI0
aI0
aF-7.80145850207289
aI0
aI0
aI0
aI0
aI0
aI0
aF0.0
aI0
aF0.0
aI0
aF5.300814246746624
aF0.0
aI0
aI0
aF-4.289213335068144
aF-5.300814246746624
aF-5.077670695432414
aI0
aF-5.077670695432414
aI0
aI0
aI0
aF0.0
aF-5.077670695432414
aI0
aI0
aI0
aI0
aF-9.495204638628357
aF-11.821174619074444
aI0
aF-11.728087050646273
aF11.433868845509679
aI0
aI0
aF-5.993961427306569
aF6.73713152269633
aF5.523143116488363
aF11.987922854613139
aI0
aI0
aF4.741198458811201
aI0
aF5.300814246746624
aI0
aI0
aF-5.077670695432414
aI0
aF-0.576351231673171
aI0
aI0
aI0
aF-5.300814246746624
aF5.993961427306569
aI0
aI0
aI0
aF8.027546803011344
aI0
aI0
aF25.72756711722341
aI0
aI0
aI0
aF9.001395813693135
aF3.2859112262043593
aI0
aF-5.300814246746624
aI0
aI0
aF-5.993961427306569
aI0
aI0
aF-4.506746219576903
aI0
aI0
aI0
aI0
aF-4.895349138638459
aI0
aF5.993961427306569
aI0
aF-8.975058696551036
aF0.0
aI0
aF0.0
aF5.588496319198405
aI0
aI0
aF-5.077670695432414
aF15.223740813452242
aF0.0
aI0
aI0
aI0
aF3.8538952638102986
aI0
aI0
aI0
aI0
aI0
aI0
aF-5.077670695432414
aF-7.114946397464117
aI0
aI0
aF11.124353918169456
aI0
aI0
aF-10.148658891029184
aI0
aF-2.8572630622373083
aI0
aI0
aF8.096102556502512
aI0
aF5.588496319198405
aI0
aI0
aF4.741198458811201
aI0
aI0
aF-5.588496319198405
aF0.0
aI0
aF5.588496319198405
aF-11.728087050646273
aI0
aF-5.993961427306569
aF11.124353918169456
aI0
aI0
aF-4.202201958078514
aF-4.289213335068144
aI0
aF3.9790584067643047
aI0
aF0.0
aF5.588496319198405
aF9.976526704550071
aF10.430092304930078
aI0
aI0
aI0
aI0
aF3.5516143919373646
aF11.17699263839681
aF0.0
aF0.0
aI0
aI0
aF-5.993961427306569
aF-7.5934736999406995
aI0
aI0
aI0
aI0
aF2.033148257708991
aI0
aF-10.32201522088861
aF4.616590710610249
aI0
aI0
aF-8.65081405874681
aI0
aI0
aF2.735864889285087
aI0
aI0
aI0
aI0
aI0
aI0
aI0
aI0
aF5.077670695432414
aI0
aI0
aI0
aI0
aF-5.300814246746624
aI0
aI0
aI0
aF-4.6076670661866785
aF11.728087050646273
aI0
aI0
aI0
aI0
aF0.0
aI0
aI0
aI0
aI0
aF-7.958116813528609
aI0
aF5.993961427306569
aF-5.077670695432414
aF5.993961427306569
aF-5.300814246746624
aI0
aF5.993961427306569
aF9.462146786420412
aI0
aI0
aI0
aI0
aF-5.077670695432414
aI0
aI0
aF-7.542475327980821
aF-8.675630818183384
aI0
aF-5.993961427306569
aI0
aF-5.993961427306569
aI0
aI0
aI0
aI0
aI0
aI0
aI0
aI0
aF-5.300814246746624
aI0
aI0
aI0
aF-5.993961427306569
aI0
aI0
aI0
aI0
aI0
aI0
aI0
aI0
aF-4.489884030530295
aI0
aF-15.087632392460051
aI0
aI0
aI0
aI0
aI0
aF-9.462146786420412
aI0
aI0
aI0
aI0
aI0
aI0
aI0
aI0
aI0
aI0
aI0
aF-11.673107872116294
aI0
aF-12.371863008796076
aI0
aI0
aF-5.993961427306569
aI0
aI0
aF4.384523514872469
aI0
aI0
aI0
aI0
aI0
aI0
aF-5.993961427306569
aI0
aI0
aF7.192132309016397
aF-6.506242806762738
aF-1.5021516853346544
aF-9.790698277276919
aF-3.4604082160814427
aF-5.300814246746624
aI0
aI0
aF-5.588496319198405
aI0
aF4.741198458811201
aI0
aI0
aI0
aI0
aI0
aF-5.993961427306569
aI0
aF5.077670695432414
aI0
aF-4.1221592504049775
aF-10.148658891029184
aI0
aI0
aI0
aF2.4676009026904078
aI0
aI0
aI0
aI0
aI0
aF-5.588496319198405
aF4.489884030530295
aF4.6076670661866785
aI0
aF12.144153834753768
aF12.409125568259569
aF0.0
aF7.2851723402861825
aI0
aI0
aI0
aI0
aI0
aI0
aF-12.72098938077303
aF3.742669628700074
aF-5.993961427306569
aF8.385864929267663
aF-5.993961427306569
aI0
aI0
aI0
aF0.0
aF5.300814246746624
aI0
aI0
aI0
aI0
aF-3.160748083250353
aI0
aI0
aF5.993961427306569
aF0.0
aI0
aF10.148658891029184
aI0
aI0
aF12.64930314635545
aF0.0
aF4.1221592504049775
aI0
aI0
aI0
aI0
aI0
aI0
aF11.124353918169456
aI0
aI0
aI0
aI0
aI0
aF-9.228572085666869
aF-4.289213335068144
aI0
aI0
aI0
aI0
aI0
aF-5.300814246746624
aI0
aF-5.993961427306569
aI0
aI0
aF5.993961427306569
aI0
aF2.8804461180961947
aF0.0
aF-10.148658891029184
aF7.829039771253466
aF-3.1317605463771008
aI0
aI0
aF-1.512156958309287
aF-11.313895147211486
aI0
aI0
aI0
aI0
aF-4.489884030530295
aI0
aI0
aI0
aF-5.993961427306569
aF5.300814246746624
aF-7.630664549984875
aF-4.6076670661866785
aF10.148658891029184
aI0
aF10.601628493493248
aI0
aF-4.202201958078514
aI0
aI0
aF4.895349138638459
aF-7.492361597520267
aF3.6742444498044122
aF-5.993961427306569
aI0
aF-3.2213727050667877
aF2.8804461180961947
aF-3.8538952638102986
aI0
aI0
aF-19.133058644189962
aF6.525211900093734
aI0
aI0
aF-8.818792668688763
aF-3.2531214033813685
aF-5.300814246746624
aI0
aI0
aI0
aI0
aF-5.300814246746624
aI0
aF4.489884030530295
aI0
aI0
aI0
aI0
aI0
aI0
aF-5.077670695432414
aI0
aF5.077670695432414
aI0
aF4.289213335068144
aI0
aI0
aF-6.853946608533197
aF-3.742669628700074
aI0
aI0
aF-3.914519885626733
aF-4.489884030530295
aF-5.993961427306569
aI0
aI0
aI0
aF5.993961427306569
aF4.6076670661866785
aI0
aF2.793778800152137
aI0
aI0
aI0
aF-5.300814246746624
aF-5.993961427306569
aI0
aF0.0
aF6.9364655659966274
aI0
aI0
aF-5.993961427306569
aI0
aF5.300814246746624
aI0
aF-5.588496319198405
aI0
aF5.588496319198405
aI0
aI0
aI0
aF10.148658891029184
aI0
aI0
aI0
aF0.0
aI0
aI0
aF10.656062119244412
aI0
aI0
aI0
aI0
aF-8.12971549682817
aI0
aI0
aF4.895349138638459
aI0
aI0
aF4.287627651193022
aI0
aF-8.975058696551036
aI0
aI0
aI0
aF0.2951571317822744
aI0
aI0
aI0
aF4.384523514872469
aI0
aF-3.914519885626733
aI0
aF-15.553025567046442
aI0
aF-19.22695269981368
aI0
aI0
aF-9.669706727190702
aI0
aI0
aI0
aF5.300814246746624
aI0
aF-5.077670695432414
aF-5.993961427306569
aF-4.489884030530295
aF-5.993961427306569
aF-10.148658891029184
aF-5.588496319198405
aF0.0
aF-0.7855353079666161
aI0
aF11.17699263839681
aF-4.1221592504049775
aF5.588496319198405
aI0
aI0
aF-14.524538930181498
aI0
aI0
aI0
aI0
aI0
aI0
aF10.155341390864828
aI0
aF-8.074672392101387
aF5.588496319198405
aI0
aI0
aI0
aI0
aI0
aF-7.262269465090749
aF8.244318500809955
aI0
aI0
aI0
aI0
aI0
aI0
aI0
aF-10.148658891029184
aF5.993961427306569
aI0
aI0
aI0
aI0
aF-4.741198458811201
aF5.077670695432414
aI0
aF-3.391271741862185
aI0
aI0
aF0.0
aI0
aF-11.166403937029102
aF-4.1221592504049775
aI0
aI0
aI0
aI0
aF10.148658891029184
aF1.0767633520511666
aF10.148658891029184
aF0.0
aI0
aI0
aF-11.17699263839681
aF-4.6076670661866785
aI0
aI0
aF-5.077670695432414
aI0
aF-8.288546591942264
aF-12.116816948134085
aF-4.741198458811201
aI0
aI0
aI0
aF-5.741922188246574
aF-5.588496319198405
aI0
aF-5.993961427306569
aF-4.048051278251256
aF-10.601628493493248
aI0
aF11.17699263839681
aI0
aI0
aF8.59724382178325
aF-5.300814246746624
aI0
aF5.588496319198405
aI0
aF7.0566183727945715
aI0
aI0
aI0
aI0
aF11.987922854613139
aI0
aF-3.3549040976913105
aF-6.2635210927542015
aI0
aF4.741198458811201
aI0
aI0
aF8.578426670136288
aI0
aF-5.077670695432414
aF-5.077670695432414
aI0
aF-5.588496319198405
aF11.728087050646273
aI0
aF22.981617632371965
aI0
aI0
aF-5.588496319198405
aF-5.077670695432414
aF5.588496319198405
aF-4.489884030530295
aI0
aF-8.641338354288584
aI0
aI0
aI0
aF10.148658891029184
aI0
aF-7.114946397464117
aF5.588496319198405
aI0
aI0
aI0
aI0
aI0
aI0
aF4.895349138638459
aI0
aI0
aI0
aF0.0
aF5.300814246746624
aF-3.6425861701430913
aI0
aI0
aI0
aI0
aF-5.077670695432414
aI0
aI0
aI0
aI0
aF4.202201958078514
aF-2.9127444393856035
aI0
aI0
aI0
aI0
aI0
aI0
aF-11.91034783421443
aF-4.993834309446278
aF-5.993961427306569
aI0
aF4.489884030530295
aI0
aF-5.993961427306569
aI0
aI0
aI0
aI0
aI0
aF5.993961427306569
aI0
aI0
aI0
aI0
aI0
aF-5.077670695432414
aI0
aF-8.578426670136288
aI0
aI0
aF-5.993961427306569
aF7.602034487333492
aI0
aI0
aF5.077670695432414
aF4.37254778896347
aI0
aF3.3198127778800406
aF-9.462146786420412
aI0
aI0
aI0
aI0
aI0
aI0
aF7.80145850207289
aI0
aI0
aF-4.289213335068144
aI0
aF-3.8538952638102986
aF10.148658891029184
aI0
aF-5.993961427306569
aF-4.895349138638459
aF9.482396917622403
aI0
aF-5.300814246746624
aF9.020904873460292
aI0
aI0
aI0
aI0
aF-2.3011188669744302
aF5.588496319198405
aI0
aI0
aI0
aI0
aF-8.373637628453373
aI0
aI0
aI0
aI0
aF0.0
aI0
aI0
aI0
aI0
aF-12.64930314635545
aI0
aI0
aI0
aI0
aF-4.384523514872469
aF0.0
aI0
aF-14.132759585766498
aI0
aI0
aI0
aF-8.975058696551036
aF-5.588496319198405
aI0
aF11.728087050646273
aI0
aI0
aI0
aI0
aF-5.077670695432414
aI0
aI0
aI0
aI0
aF0.0
aI0
aF0.0
aI0
aF15.60291700414578
aI0
aI0
aF7.80145850207289
aI0
aF-8.857281627928938
aF-5.993961427306569
aI0
aF-4.489884030530295
aF5.588496319198405
aI0
aF10.379107163904033
aF-5.993961427306569
aI0
aI0
aF11.124353918169456
aI0
aI0
aI0
aF5.993961427306569
aI0
aF-3.509054777518569
aI0
aI0
aF-7.556317342631338
aI0
aI0
aI0
aI0
aF10.656062119244412
aI0
aF-4.6076670661866785
aI0
aI0
aF0.0
aI0
aI0
aI0
aI0
aF5.588496319198405
aI0
aI0
aI0
aI0
aI0
aF-5.588496319198405
aF5.588496319198405
aF-4.741198458811201
aF3.9790584067643047
aI0
aF11.317148355542631
aF0.0
aF-16.62505855557076
aI0
aF5.588496319198405
aF5.300814246746624
aI0
aI0
aI0
aI0
aF8.59724382178325
aI0
aF8.97976806106059
aI0
aF5.300814246746624
aI0
aF-12.135353780626902
aF5.300814246746624
aI0
aF-3.1317605463771
aF-15.415581055241194
aI0
aI0
aF11.728087050646273
aI0
aF5.588496319198405
aI0
aF8.215059536211946
aI0
aF-10.148658891029184
aI0
aI0
aI0
aF4.048051278251256
aI0
aI0
aF-4.202201958078514
aF-3.742669628700074
aF-11.728087050646273
aI0
aF-5.993961427306569
aF21.747719025230936
aF0.0
aF-1.4108451383929208
aF-17.113834670635466
aI0
aI0
aF5.588496319198405
aF5.077670695432414
aF-0.448896050217613
aI0
aI0
aF-10.148658891029184
aF5.077670695432414
aI0
aF5.588496319198405
aF0.0
aF-4.202201958078514
aF-3.160748083250353
aF5.993961427306569
aF-5.588496319198405
aI0
aF5.993961427306569
aI0
aI0
aF-4.741198458811201
aI0
aF5.588496319198405
aF8.513006990255928
aF-10.995249937959102
aI0
aI0
aI0
aI0
aI0
aI0
aF5.588496319198405
aI0
aF-5.209628699000979
aI0
aF-5.588496319198405
aF5.077670695432414
aI0
aI0
aF-9.793548350854783
aI0
aI0
aF10.79249824520896
aF0.7482953868251956
aI0
aI0
aI0
aF-6.73713152269633
aF8.288546591942264
aI0
aI0
aF11.728087050646273
aI0
aI0
aF13.674914517215665
aF-1.9957607256373708
aF-8.288546591942264
aI0
aI0
aF-3.9790584067643047
aF-5.300814246746624
aI0
aF-4.202201958078514
aI0
aI0
aI0
aF5.588496319198405
aF10.148658891029184
aI0
aF3.2859112262043593
aF-4.741198458811201
aI0
aI0
aF-12.642992333001413
aI0
aF5.993961427306569
aF-8.818792668688763
aF-3.2213727050667877
aI0
aI0
aI0
aI0
aF-10.399561202425073
aF-10.148658891029184
aI0
aI0
aF12.64930314635545
aI0
aF8.288546591942264
aI0
aI0
aI0
aF-5.588496319198405
aF-5.993961427306569
aF5.993961427306569
aF8.288546591942264
aI0
aI0
aI0
aI0
aI0
aI0
aI0
aF1.3342630413996903
aF-5.077670695432414
aI0
aF0.0
aF-5.993961427306569
aI0
aI0
aF-2.9494389895831463
aF-5.588496319198405
aF-4.289213335068144
aF-4.993834309446278
aI0
aI0
aF-10.148658891029184
aF5.993961427306569
aI0
aF0.0
aI0
aI0
aI0
aI0
aI0
aI0
aI0
aI0
aF-8.207594667855261
aI0
aI0
aF0.0
aI0
aI0
aI0
aF-5.993961427306569
aI0
aI0
aI0
aI0
aI0
aI0
aF-5.077670695432414
aI0
aI0
aF-13.249866419516966
aI0
aF5.993961427306569
aI0
aI0
aF5.077670695432414
aI0
aI0
aI0
aF-4.4472388794454805
aI0
aF11.124353918169456
aI0
aF4.741198458811201
aI0
aF5.993961427306569
aF8.975058696551036
aF11.728087050646273
aI0
aI0
aF-4.202201958078514
aF-2.836961006156456
aI0
aF-4.384523514872469
aF-5.993961427306569
aF-2.8804461180961947
aI0
aI0
aF10.872559338804285
aI0
aI0
aF-5.077670695432414
aI0
aF-10.027690836849722
aI0
aI0
aI0
aF5.993961427306569
aI0
aI0
aF0.0
aF4.048051278251256
aI0
aF5.077670695432414
aI0
aI0
aF-4.384523514872469
aI0
aI0
aI0
aI0
aI0
aI0
aF12.64930314635545
aF-3.160748083250353
aI0
aF4.202201958078514
aI0
aF-6.042839320213826
aF3.1035896694104044
aI0
aI0
aI0
aF14.587660232598733
aI0
aI0
aF-10.155341390864828
aI0
aI0
aI0
aI0
aF1.9152184729501922
aI0
aF4.741198458811201
aF5.985012547871083
aI0
aF-4.895349138638459
aI0
aI0
aF5.993961427306569
aF5.993961427306569
aF-9.462146786420412
aF6.5718224524087185
aI0
aI0
aI0
aF0.0
aI0
aF2.095763051818499
aI0
aF5.993961427306569
aI0
aI0
aF-5.993961427306569
aF0.0
aI0
aI0
aI0
aI0
aF8.975058696551036
aF-11.731537108074365
aI0
aF-5.993961427306569
aI0
aI0
aI0
aF-8.404403916157028
aI0
aF9.482396917622403
aF10.01897262630954
aI0
aI0
aI0
aI0
aF-9.133193930108758
aF0.0
aI0
aI0
aI0
aF0.0
aF-2.998229153752578
aI0
aI0
aI0
aI0
aF-9.669706727190702
aF-10.287036209535097
aF-4.1221592504049775
aF4.895349138638459
aF11.17699263839681
aI0
aI0
aF-7.114946397464117
aF5.588496319198405
aI0
aI0
aI0
aF-8.59724382178325
aF10.148658891029184
aF3.914519885626733
aF-5.588496319198405
aI0
aI0
aF4.384523514872469
aF10.148658891029184
aF11.728087050646273
aI0
aF-5.300814246746624
aI0
aF-3.3549040976913105
aI0
aI0
aF-4.895349138638459
aI0
aI0
aI0
aF-5.993961427306569
aI0
aI0
aI0
aI0
aF-4.895349138638459
aI0
aI0
aI0
aI0
aF-8.288546591942264
aI0
aF4.384523514872469
aI0
aI0
aI0
aF10.148658891029184
aI0
aI0
aF5.993961427306569
aI0
aI0
aI0
aI0
aI0
aI0
aI0
aI0
aF0.0
aI0
aF-5.585995775739227
aI0
aI0
aI0
aI0
aI0
aF-7.967878610186826
aF-7.602034487333492
aI0
aI0
aI0
aI0
aF-5.588496319198405
aI0
aI0
aI0
aI0
aI0
aF0.0
aI0
aF-14.96660939551191
aF-7.469765674177035
aI0
aF4.741198458811201
aI0
aI0
aI0
aI0
aI0
aF-8.087831959872121
aF0.0
aF-7.5934736999406995
aF-11.728087050646273
aF4.741198458811201
aI0
aF-3.725692809822703
aF-4.289213335068144
aI0
aI0
aF-5.993961427306569
aI0
aF-5.300814246746624
aF4.6076670661866785
aF5.300814246746624
aI0
aI0
aI0
aI0
aI0
aI0
aI0
aF4.6076670661866785
aI0
aI0
aF-4.6076670661866785
aF-9.482396917622403
aI0
aF-11.17699263839681
aF-5.588496319198405
aI0
aI0
aF5.077670695432414
aI0
aI0
aI0
aF7.382752668625047
aI0
aI0
aI0
aI0
aF13.493077900183007
aF-5.620931644854471
aF0.0
aF-5.993961427306569
aI0
aI0
aI0
aF5.993961427306569
aF-5.993961427306569
aF10.656062119244412
aI0
aF0.0
aI0
aF4.384523514872469
aI0
aI0
aI0
aI0
aI0
aF-4.384523514872469
aF-4.489884030530295
aF-3.07619069522229
aF-5.588496319198405
aF-4.048051278251256
aI0
aF0.0
aF1.4070180344569918
aI0
aF0.0
aF-6.858024139690065
aF13.153570544617406
aI0
aF4.289213335068144
aI0
aI0
aF-4.741198458811201
aF3.4022936895540394
aI0
aI0
aI0
aI0
aF-5.208738889864289
aI0
aF-5.993961427306569
aF-8.59724382178325
aI0
aF4.489884030530295
aI0
aI0
aI0
aF-11.124353918169456
aI0
aI0
aI0
aI0
aI0
aI0
aI0
aI0
aI0
aF-10.148658891029184
aI0
aF9.790698277276919
aI0
aI0
aI0
aI0
aF4.6076670661866785
aI0
aI0
aI0
aF-3.07619069522229
aI0
aI0
aI0
aF15.204068974666985
aI0
aI0
aF-10.71418494413669
aI0
aI0
aI0
aF-5.300814246746624
aI0
aI0
aF11.987922854613139
aF-5.300814246746624
aI0
aF-5.077670695432414
aF15.050643105618818
aF-6.250043432826955
aF4.741198458811201
aF-4.384523514872469
aI0
aF-5.993961427306569
aF-12.645621302615277
aF6.428434292855346
aI0
aI0
aF-5.993961427306569
aF11.783359258803898
aI0
aI0
aF0.0
aF3.7967368499703498
aF4.202201958078514
aI0
aI0
aI0
aF-5.993961427306569
aF-4.6076670661866785
aF8.59724382178325
aF3.742669628700074
aF-1.7987058266916318
aI0
aF4.1221592504049775
aF12.12957942183868
aI0
aI0
aF-4.741198458811201
aI0
aF-5.588496319198405
aI0
aF5.588496319198405
aI0
aF-4.6076670661866785
aF-5.588496319198405
aI0
aI0
aF-5.588496319198405
aI0
aI0
aF8.027546803011344
aI0
aF-8.975058696551036
aI0
aI0
aF7.2851723402861825
aF-2.151244428966795
aI0
aF-4.741198458811201
aI0
aF-10.601628493493248
aI0
aI0
aI0
aI0
aF-4.741198458811201
aI0
aF9.462146786420412
aF-10.601628493493248
aI0
aI0
aF2.4322914254674024
aI0
aF-5.993961427306569
aF10.148658891029184
aF-6.979422312642286
aI0
aF0.0
aF-4.384523514872469
aF-8.975058696551036
aI0
aF2.3696204943302033
aI0
aF-7.217029624000711
aF-4.585818129569736
aF9.081932482438395
aI0
aF5.993961427306569
aI0
aI0
aI0
aF4.741198458811201
aF0.0
aI0
aI0
aF-5.588496319198405
aF5.993961427306569
aF5.993961427306569
aI0
aI0
aI0
aI0
aI0
aI0
aF-5.300814246746624
aI0
aI0
aI0
aF0.0
aI0
aI0
aI0
aI0
aI0
aI0
aI0
aF8.288546591942264
aI0
aI0
aI0
aF-4.202201958078514
aI0
aF0.0
aI0
aI0
aF-5.300814246746624
aF11.728087050646273
aF-4.489884030530295
aI0
aI0
aI0
aF-0.002492212160494366
aF0.0
aI0
aF4.741198458811201
aI0
aF-6.709808195382621
aI0
aI0
aF2.9494389895831463
aI0
aF5.993961427306569
aI0
aF10.148658891029184
aI0
aF-5.119310013555367
aF0.0
aF10.148658891029184
aI0
aI0
aF-5.300814246746624
aF2.973056130022605
aF10.148658891029184
aI0
aF6.321496166500706
aF2.2682680000699165
aF10.148658891029184
aF12.772973309151787
aI0
aI0
aF-11.124353918169456
aI0
aF0.0
aI0
aI0
aI0
aI0
aI0
aI0
aF9.565020286082238
aF0.0
aF-0.9884872970169791
aI0
aI0
aI0
aI0
aI0
aF13.323793690129637
aF-5.300814246746624
aI0
aF5.077670695432414
aI0
aF5.993961427306569
aI0
aF-5.588496319198405
aI0
aI0
aI0
aF11.68174404524607
aI0
aI0
aI0
aI0
aI0
aF-2.6713166362834357
aI0
aI0
aI0
aI0
aI0
aI0
aF-9.669706727190702
aF-4.6076670661866785
aF-5.510565950284377
aF5.993961427306569
aI0
aI0
aF-7.382752668625047
aF-5.588496319198405
aI0
aI0
aI0
aI0
aI0
aI0
aI0
aF-0.2540484042218889
aI0
aF4.895349138638459
aF15.519350313621146
aF-12.59810953504347
aF10.981708093285178
aF-2.0919887577319245
aI0
aI0
aF6.572351167792938
aI0
aI0
aF10.148658891029184
aI0
aF-5.993961427306569
aI0
aI0
aI0
aI0
aF4.489884030530295
aF4.1221592504049775
aI0
aI0
aF5.588496319198405
aF-10.901997886784452
aF-10.47731454124522
aI0
aF-8.975058696551036
aI0
aF8.59724382178325
aI0
aF0.0
aI0
aF4.6076670661866785
aF6.3295901945356885
aI0
aF5.993961427306569
aI0
aF-5.077670695432414
aI0
aF-9.462146786420412
aI0
aI0
aI0
aI0
aI0
aF-12.642992333001413
aI0
aI0
aF4.489884030530295
aI0
aI0
aI0
aF5.993961427306569
aI0
aF5.993961427306569
aI0
aI0
aF-6.78254348372437
aI0
aI0
aI0
aI0
aI0
aF-2.8804461180961947
aF5.993961427306569
aI0
aF5.993961427306569
aI0
aI0
aI0
aI0
aI0
aI0
aF5.588496319198405
aF5.588496319198405
aF5.077670695432414
aI0
aI0
aF-2.805895330281941
aF-9.462146786420412
aI0
aI0
aI0
aF5.993961427306569
aI0
aI0
aF-14.71559692580141
aI0
aI0
aF-0.9698844608851189
aF6.389629019496512
aI0
aF3.107057724160303
aI0
aF-5.300814246746624
aF0.0
aI0
aI0
aF-8.975058696551036
aI0
aF-5.993961427306569
aF-4.9539937140990356
aI0
aF7.114946397464117
aI0
aF5.993961427306569
aI0
aI0
aI0
aI0
aI0
aI0
aF0.931140341246727
aI0
aF16.143960965015815
aF4.384523514872469
aI0
aI0
aF-5.588496319198405
aI0
aF-5.077670695432414
aF4.895349138638459
aI0
aF-5.993961427306569
aI0
aF0.0
aI0
aI0
aI0
aF-5.993961427306569
aF-5.993961427306569
aF-8.975058696551036
aI0
aI0
aI0
aI0
aI0
aF0.0
aF-5.993961427306569
aI0
aI0
aI0
aF-6.381202092800069
aF-11.365981571202754
aI0
aI0
aF-8.288546591942264
aI0
aF-5.993961427306569
aI0
aI0
aI0
aI0
aI0
aI0
aF-5.993961427306569
aF5.077670695432414
aI0
aF-5.300814246746624
aI0
aI0
aI0
aI0
aI0
aI0
aI0
aF4.048051278251256
aF4.1221592504049775
aI0
aF-4.895349138638459
aF5.588496319198405
aI0
aI0
aI0
aI0
aI0
aI0
aI0
aF-3.6425861701430913
aI0
aI0
aF-5.300814246746624
aF-17.041039242165148
aI0
aI0
aF4.895349138638459
aF-5.588496319198405
aI0
aI0
aI0
aF4.741198458811201
aI0
aI0
aI0
aF5.300814246746624
aI0
aI0
aF5.588496319198405
aI0
aI0
aF5.300814246746624
aI0
aF5.993961427306569
aF-12.168223270673277
aI0
aI0
aF5.993961427306569
aI0
aI0
aI0
aI0
aF-5.993961427306569
aI0
aI0
aF5.993961427306569
aF-8.215059536211946
aF5.935727872157986
aF3.6425861701430913
aF-3.3198127778800406
aI0
aI0
aF1.5806454558803544
aF9.425501070320733
aF5.588496319198405
aF-5.077670695432414
aI0
aI0
aF11.728087050646273
aI0
aF5.588496319198405
aI0
aI0
aI0
aF5.588496319198405
aF0.0
aF-10.656062119244412
aF5.993961427306569
aF0.0
aF-5.993961427306569
aI0
aF-5.993961427306569
aI0
aF10.601628493493248
aI0
aI0
aF-10.273439859667517
aI0
aF-9.736931445744133
aI0
aF4.895349138638459
aF19.28353991080368
aI0
aF-8.849313054581616
aF-4.741198458811201
aI0
aI0
aF8.578426670136288
aF-4.489884030530295
aF-5.993961427306569
aI0
aI0
aI0
aI0
aI0
aI0
aI0
aI0
aI0
aI0
aI0
aI0
aI0
aI0
aF-5.993961427306569
aF-18.90080196100908
aI0
aI0
aI0
aI0
aF0.0
aI0
aI0
aF-4.895349138638459
aI0
aF6.8270405536653875
aI0
aI0
aI0
aF6.428434292855346
aI0
aF-7.738641239073777
aI0
aI0
aF4.741198458811201
aF5.993961427306569
aF-5.300814246746624
aF-4.171141760216477
aF0.0
aF5.993961427306569
aI0
aF5.993961427306569
aI0
aI0
aI0
aF-6.3460654082247565
aI0
aI0
aI0
aI0
aF6.853946608533197
aF-5.588496319198405
aI0
aI0
aI0
aF5.588496319198405
aF11.317148355542631
aF3.5960661545081987
aF-5.077670695432414
aI0
aI0
aF-0.08543092524592166
aI0
aI0
aF-6.853946608533197
aF3.8925714985574595
aI0
aI0
aI0
aF5.588496319198405
aF4.489884030530295
aI0
aI0
aI0
aF-4.741198458811201
aI0
aI0
aI0
aF4.895349138638459
aF5.6340336246488345
aF5.993961427306569
aI0
aI0
aI0
aI0
aF10.656062119244412
aI0
aF1.242155947969315
aI0
aF8.578426670136288
aI0
aF5.993961427306569
aI0
aI0
aF0.0
aF-5.993961427306569
aI0
aI0
aI0
aF2.558667098514432
aI0
aI0
aF4.489884030530295
aI0
aF10.148658891029184
aF-5.077670695432414
aF-8.975058696551036
aF8.975058696551036
aI0
aI0
aI0
aI0
aI0
aI0
aI0
aI0
aF-5.359550845268087
aI0
aF-3.048743144944737
aF4.6076670661866785
aI0
aI0
aI0
aI0
aF6.9364655659966274
aF-4.202201958078514
aF0.0
aI0
aI0
aI0
aI0
aF-5.588496319198405
aI0
aI0
aF-11.728087050646273
aF-2.7580731159320258
aI0
aI0
aI0
aI0
aI0
aI0
aF-4.489884030530295
aI0
aI0
aI0
aF8.027546803011344
aI0
aF1.1177378363617576
aI0
aF-3.509054777518569
aI0
aI0
aF-7.602034487333492
aI0
aI0
aI0
aF-5.588496319198405
aF4.895349138638459
aI0
aF5.993961427306569
aF0.7299391498326051
aF0.36389933216560255
aI0
aF5.077670695432414
aI0
aI0
aF5.588496319198405
aF-1.4836270771165219
aI0
aI0
aI0
aF-0.05495039697360615
aF4.6076670661866785
aI0
aF0.0
aI0
aI0
aI0
aF-6.049156043251324
aI0
aF-5.300814246746624
aI0
aI0
aF-7.217640245742485
aI0
aI0
aF13.863971494481529
aF4.741198458811201
aF-11.124353918169456
aI0
aI0
aI0
aF5.588496319198405
aF5.588496319198405
aF-4.895349138638459
aI0
aF-5.588496319198405
aI0
aI0
aF-7.423643627305102
aF-27.760000529433448
aI0
aI0
aI0
aF-5.993961427306569
aI0
aI0
aF-7.829039771253466
aF-10.064712293073931
aI0
aF5.077670695432414
aI0
aF-3.5052335178124068
aI0
aI0
aI0
aF4.895349138638459
aI0
aI0
aF-5.588496319198405
aF7.698272911044147
aI0
aI0
aI0
aF5.588496319198405
aF0.0
aF-5.993961427306569
aI0
aF-9.94993734867549
aF-2.795288309755888
aF-8.404403916157028
aF-5.300814246746624
aI0
aF-5.993961427306569
aI0
aI0
aI0
aI0
aF2.4104424888504594
aF5.300814246746624
aI0
aF-5.588496319198405
aF-13.476541414310102
aF-15.597708724961834
aI0
aI0
aI0
aF11.17699263839681
aI0
aF-5.993961427306569
aI0
aI0
aF-6.853946608533197
aI0
aI0
aI0
aF-3.4290120698450326
aI0
aI0
aI0
aI0
aI0
aF4.384523514872469
aF-5.993961427306569
aI0
aI0
aF-0.3803749272618281
aI0
aF0.0
aI0
aF0.0
aF8.975058696551036
aI0
aF5.993961427306569
aF5.993961427306569
aI0
aI0
aI0
aI0
aF8.975058696551036
aF5.993961427306569
aI0
aF-8.096102556502512
aF-4.993834309446278
aI0
aF-8.244318500809955
aF3.4290120698450326
aI0
aI0
aF0.0
aF14.867682705811035
aF-13.150704496421028
aF5.588496319198405
aI0
aI0
aI0
aI0
aI0
aI0
aI0
aI0
aF-7.114946397464117
aI0
aF-5.993961427306569
aI0
aI0
aI0
aF11.728087050646273
aI0
aI0
aI0
aI0
aI0
aI0
aF-4.202201958078514
aI0
aI0
aF-5.588496319198405
aF4.895349138638459
aI0
aI0
aI0
aI0
aI0
aI0
aF5.300814246746624
aI0
aI0
aI0
aI0
aF5.077670695432414
aI0
aF-5.993961427306569
aI0
aI0
aF5.588496319198405
aI0
aI0
aF-4.6076670661866785
aF-4.741198458811201
aI0
aF5.077670695432414
aF5.588496319198405
aI0
aF-7.262269465090749
aF4.895349138638459
aF-5.993961427306569
aF-4.048051278251256
aI0
aI0
aI0
aI0
aI0
aI0
aF-10.148658891029184
aF-7.80145850207289
aI0
aF-5.077670695432414
aI0
aF5.300814246746624
aF-8.975058696551036
aI0
aI0
aF5.300814246746624
aI0
aI0
aI0
aI0
aI0
aI0
aF9.482396917622403
aI0
aF-5.077670695432414
aI0
aF-10.273439859667517
aI0
aF-8.35050086976372
aI0
aI0
aI0
aI0
aF0.0
aI0
aI0
aI0
aI0
aI0
aI0
aI0
aF8.59724382178325
aI0
aI0
aI0
aI0
aF-4.384523514872469
aF11.124353918169456
aI0
aF-7.262269465090749
aF-13.676823506341446
aF-4.048051278251256
aF-11.17699263839681
aF-3.391271741862185
aI0
aF5.077670695432414
aF5.300814246746624
aI0
aI0
aF5.993961427306569
aI0
aI0
aF-7.5467486227143805
aI0
aI0
aI0
aI0
aI0
aI0
aF5.077670695432414
aI0
aI0
aF8.975058696551036
aI0
aF-11.313895147211486
aF15.630236371389095
aI0
aI0
aI0
aF18.479193823016338
aF-13.623825997979214
aI0
aI0
aI0
aI0
aF11.17699263839681
aF-11.597082103914962
aF-4.6076670661866785
aI0
aF12.116816948134085
aF10.542378193221477
aI0
aI0
aF4.895349138638459
aI0
aF5.588496319198405
aI0
aF-5.993961427306569
aI0
aI0
aI0
aI0
aI0
aI0
aI0
aF4.741198458811201
aI0
aI0
aI0
aI0
aI0
aI0
aI0
aI0
aI0
aI0
aI0
aF89.1725160990377
aI0
aF-5.588496319198405
aI0
aF-6.381202092800069
aI0
aF-5.300814246746624
aI0
aF5.993961427306569
aF10.148658891029184
aI0
aI0
aF10.379107163904035
aI0
aF-11.68174404524607
aI0
aI0
aI0
aI0
aF5.077670695432414
aI0
aF-5.300814246746624
aI0
aI0
aI0
aI0
aI0
aF-4.384523514872469
aF-3.5516143919373646
aF5.993961427306569
aF-5.588496319198405
aF5.300814246746624
aF-5.588496319198405
aI0
aI0
aI0
aI0
aF5.993961427306569
aI0
aI0
aI0
aI0
aF11.313895147211486
aI0
aF-10.148658891029184
aF-4.741198458811201
aF-3.1317605463771008
aF-6.506242806762737
aF0.0
aI0
aF13.051824152108392
aI0
aF-5.300814246746624
aI0
aF-5.077670695432414
aI0
aF4.202201958078514
aF-4.6076670661866785
aF-7.103228783874729
aF3.2213727050667877
aF4.1221592504049775
aI0
aI0
aF5.077670695432414
aF-3.1035896694104044
aI0
aF7.018109555037138
aI0
aF5.993961427306569
aI0
aF-12.409125568259569
aI0
aI0
aF-5.300814246746624
aF5.588496319198405
aF-8.244318500809955
aI0
aI0
aI0
aI0
aF5.993961427306569
aF0.0
aF-10.16922443297613
aI0
aF6.639625555760081
aF5.993961427306569
aI0
aI0
aI0
aI0
aI0
aI0
aI0
aF12.409125568259569
aI0
aI0
aI0
aF-3.8538952638102986
aF-7.602034487333492
aI0
aF-2.6797754226340436
aI0
aF-4.384523514872469
aI0
aF4.6076670661866785
aI0
aI0
aI0
aI0
aF-5.300814246746624
aI0
aI0
aF13.674914517215665
aF-8.89466290075265
aI0
aI0
aF-5.993961427306569
aI0
aI0
aF0.0
aF-4.202201958078514
aI0
aF7.5934736999406995
aI0
aI0
aF5.300814246746624
aF4.048051278251256
aI0
aF7.80145850207289
aF-5.588496319198405
aF-5.993961427306569
aI0
aI0
aI0
aF0.0
aI0
aF-5.993961427306569
aF-4.1221592504049775
aF-8.215059536211946
aF5.588496319198405
aI0
aI0
aI0
aF10.273439859667517
aI0
aF19.52187039754427
aF0.0
aI0
aI0
aF4.384523514872469
aF-4.895349138638459
aF-4.741198458811201
aF8.975058696551036
aI0
aI0
aI0
aI0
aI0
aF0.0
aI0
aI0
aF4.604598901879098
aI0
aI0
aF-12.64930314635545
aI0
aI0
aF5.588496319198405
aI0
aI0
aF-8.59724382178325
aI0
aI0
aI0
aF-4.7127505351603665
aI0
aI0
aF-8.97976806106059
aF-8.096102556502512
aI0
aI0
aI0
aI0
aI0
aI0
aF-4.384523514872469
aI0
aI0
aI0
aF-6.4427454101335755
aF0.0
aI0
aI0
aF-5.588496319198405
aI0
aI0
aI0
aI0
aF6.853946608533198
aI0
aF-5.277816517995276
aF-3.9790584067643047
aI0
aI0
aI0
aI0
aF-3.2213727050667877
aF0.0
aF-9.482396917622403
aF3.2531214033813685
aI0
aF4.741198458811201
aF0.0
aI0
aF3.742669628700074
aI0
aI0
aI0
aI0
aI0
aI0
aI0
aF-5.993961427306569
aI0
aF-8.575401634132259
aI0
aI0
aF-4.202201958078514
aI0
aF-5.077670695432414
aI0
aI0
aI0
aF10.601628493493248
aI0
aI0
aI0
aI0
aI0
aF-7.423643627305102
aI0
aI0
aI0
aI0
aI0
aF-3.1906010464000345
aI0
aI0
aF-15.423102140428533
aF-6.250043432826955
aF5.300814246746624
aI0
aI0
aI0
aF12.116816948134085
aF-5.077670695432414
aI0
aI0
aF5.993961427306569
aF0.0
aI0
aF5.025442675941755
aF10.148658891029184
aI0
aI0
aF5.588496319198405
aI0
aI0
aI0
aI0
aI0
aF-3.2859112262043593
aI0
aF0.0
aI0
aI0
aI0
aF14.970678514800296
aI0
aF0.0
aI0
aI0
aI0
aF1.883087563133258
aF-10.148658891029184
aF-8.244014547468025
aF5.588496319198405
aF4.4360049771102545
aI0
aF-5.077670695432414
aF5.300814246746624
aF11.728087050646273
aI0
aI0
aI0
aI0
aI0
aF8.675630818183384
aF2.1332317162659735
aF-3.2531214033813685
aF-3.3198127778800406
aI0
aF-5.588496319198405
aF0.9967218803619482
aI0
aF9.65942630577955
aI0
aI0
aF5.588496319198405
aI0
aI0
aI0
aI0
aI0
aF-10.148658891029184
aF12.774109636964813
aF-5.993961427306569
aI0
aI0
aI0
aI0
aI0
aF-10.148658891029184
aF-4.741198458811201
aF7.72870423107961
aF-3.7336540845229553
aF0.0
aF2.528225524506843
aF-8.85117811285638
aF-2.453002103269255
aF-8.977829405504792
aF4.419543586776616
aF-1.6424957646420455
aF-10.656062119244412
aI0
aF10.656062119244412
aF-4.489884030530295
aI0
aF-5.300814246746624
aI0
aI0
aI0
aI0
aI0
aF5.588496319198405
aI0
aF13.932309694536514
aI0
aI0
aF3.1035896694104044
aI0
aF4.384523514872469
aI0
aI0
aI0
aI0
aF10.148658891029184
aF21.88402479848558
aF-12.144153834753768
aI0
aI0
aI0
aI0
aF-5.993961427306569
aF-4.895349138638459
aI0
aF0.0
aI0
aI0
aI0
aF-5.300814246746624
aI0
aF5.620931644854471
aF-4.895349138638459
aI0
aI0
aI0
aF0.0
aI0
aF-3.7671547979230247
aF-5.993961427306569
aF9.482396917622403
aF0.0
aI0
aI0
aI0
aI0
aF-10.273439859667517
aF13.97644154877944
aI0
aI0
aI0
aI0
aF-8.769047029744938
aF-11.183563217662321
aF3.7967368499703498
aF5.300814246746624
aF12.64930314635545
aI0
aI0
aF6.685511620339854
aF-13.250112549207302
aF-5.993961427306569
aI0
aI0
aI0
aI0
aF0.0
aI0
aI0
aF5.993961427306569
aF-5.993961427306569
aI0
aF10.148658891029184
aI0
aI0
aF-5.300814246746624
aI0
aI0
aI0
aI0
aI0
aI0
aF-1.3427074996389434
aI0
aI0
aI0
aI0
aI0
aI0
aF-4.741198458811201
aI0
aI0
aI0
aI0
aI0
aI0
aI0
aI0
aF-10.287036209535097
aF-5.588496319198405
aF-3.5516143919373646
aI0
aI0
aF9.462146786420412
aI0
aF-5.993961427306569
aF-5.588496319198405
aF-5.588496319198405
aI0
aI0
aF-5.993961427306569
aI0
aF-4.289213335068144
aF13.736823624951626
aF-4.489884030530295
aI0
aI0
aF0.0
aI0
aI0
aF4.1221592504049775
aI0
aI0
aF5.993961427306569
aF-10.287036209535097
aI0
aF-5.993961427306569
aI0
aF8.089436975622107
aF9.94993734867549
aI0
aF5.716934422754839
aF0.0
aF-7.958116813528609
aI0
aF5.993961427306569
aF-5.077670695432414
aI0
aF3.6425861701430913
aF-6.98269517938445
aF0.0
aF13.183895730580723
aF-5.993961427306569
aF5.993961427306569
aI0
aI0
aI0
aI0
aI0
aF-10.148658891029184
aI0
aF-6.099044896280257
aF11.17699263839681
aI0
aI0
aF-7.485339257400148
aF-4.401580174882777
aI0
aI0
aF16.0039340366425
aF-5.993961427306569
aI0
aI0
aI0
aI0
aF5.119310013555367
aI0
aF5.993961427306569
aI0
aI0
aF-9.790698277276919
aF4.895349138638459
aF-5.993961427306569
aI0
aF12.768745261822545
aF-0.8952992807996907
aI0
aI0
aI0
aI0
aI0
aI0
aF-8.808710531341388
aF5.300814246746624
aI0
aI0
aF5.300814246746624
aI0
aF5.993961427306569
aF-4.489884030530295
aI0
aI0
aI0
aI0
aI0
aI0
aI0
aF5.993961427306569
aF-4.048051278251256
aF7.602034487333492
aF11.228008886100222
aI0
aI0
aI0
aI0
aI0
aF6.377603437487091
aF0.0
aI0
aI0
aI0
aF5.993961427306569
aI0
aF-5.993961427306569
aI0
aF10.148658891029184
aI0
aF-1.844989302445538
aF5.300814246746624
aI0
aI0
aF9.94993734867549
aI0
aF-5.993961427306569
aI0
aF8.495290157696736
aI0
aI0
aI0
aI0
aF-1.6490801184942456
aI0
aI0
aF35.95238473986537
aF5.588496319198405
aF3.8736504672220073
aI0
aI0
aI0
aF-4.741198458811201
aI0
aI0
aI0
aF0.0
aI0
aI0
aI0
aI0
aF-4.895349138638459
aI0
aI0
aF-3.7967368499703498
aF0.0
aI0
aI0
aI0
aI0
aI0
aI0
aI0
aI0
aF5.993961427306569
aF5.993961427306569
aF0.0
aI0
aI0
aI0
aI0
aI0
aI0
aI0
aI0
aI0
aI0
aI0
aF10.148658891029184
aF-5.993961427306569
aI0
aF8.975058696551036
aF-3.8538952638102986
aF-7.602034487333492
aI0
aI0
aF4.741198458811201
aI0
aI0
aI0
aI0
aI0
aF8.97976806106059
aI0
aF-3.9790584067643047
aF5.077670695432414
aF5.993961427306569
aI0
aI0
aI0
aI0
aF8.027546803011344
aI0
aF-17.17186603279487
aI0
aI0
aF5.588496319198405
aI0
aI0
aI0
aI0
aF-5.993961427306569
aI0
aI0
aF-4.489884030530295
aI0
aI0
aF5.42667684393602
aI0
aF-4.489884030530295
aI0
aI0
aF-7.196166867768057
aI0
aI0
aF0.9864652987151894
aI0
aI0
aF-11.728087050646273
aI0
aF11.728087050646273
aI0
aI0
aI0
aF10.601628493493248
aF-10.027690836849722
aI0
aF10.148658891029184
aF-7.967878610186826
aF-8.994687461257733
aF0.0
aF5.588496319198405
aI0
aF4.741198458811201
aI0
aF9.790698277276919
aF7.707790527620597
aI0
aF11.80816714217757
aI0
aI0
aF-5.300814246746624
aI0
aI0
aF3.810243155363546
aI0
aI0
aF5.077670695432414
aI0
aF3.6913763343125234
aF5.077670695432414
aF11.728087050646273
aI0
aI0
aI0
aI0
aI0
aF-5.588496319198405
aI0
aF0.0
aI0
aI0
aF-5.588496319198405
aF-7.45346160753027
aI0
aF5.993961427306569
aI0
aF10.148658891029184
aI0
aF-5.588496319198405
aF0.0
aI0
aF-5.993961427306569
aF-5.993961427306569
aI0
aI0
aI0
aF-9.155908514451859
aF-5.300814246746624
aF5.993961427306569
aI0
aI0
aF-11.124353918169456
aI0
aI0
aI0
aI0
aI0
aI0
aF-5.993961427306569
aI0
aI0
aF-10.214696598531596
aF-5.588496319198405
aI0
aF-10.148658891029184
aF-5.588496319198405
aI0
aF0.0
aI0
aI0
aI0
aI0
aI0
aF-4.741198458811201
aI0
aI0
aI0
aI0
aI0
aF-3.914519885626733
aI0
aI0
aI0
aF5.588496319198405
aI0
aI0
aF0.0
aI0
aI0
aI0
aF-7.829039771253466
aI0
aF0.9009513644044853
aI0
aI0
aI0
aF-4.228556971525683
aI0
aI0
aI0
aI0
aI0
aF8.975058696551036
aI0
aF5.993961427306569
aI0
aI0
aF0.0
aI0
aF-3.6913763343125234
aF5.077670695432414
aI0
aF-5.993961427306569
aF4.6076670661866785
aI0
aF3.5516143919373646
aI0
aF-5.288114680063929
aF-4.384523514872469
aF-4.6076670661866785
aF-4.1221592504049775
aI0
aF9.001395813693135
aF-5.993961427306569
aI0
aI0
aI0
aI0
aI0
aI0
aF-9.634370786044235
aF5.077670695432414
aI0
aF9.495204638628357
aF5.588496319198405
aF5.993961427306569
aI0
aI0
aF-9.234834188009172
aI0
aF8.975058696551036
aF5.588496319198405
aF4.202201958078514
aI0
aI0
aF-4.6076670661866785
aI0
aI0
aF11.17699263839681
aF5.993961427306569
aF9.759364210144106
aI0
aF-3.8538952638102986
aF-2.973536541162207
aI0
aF-5.588496319198405
aI0
aI0
aI0
aF-5.993961427306569
aF13.996811170113858
aI0
aI0
aI0
aF-10.148658891029184
aI0
aF-8.59724382178325
aF-7.262269465090749
aI0
aI0
aI0
aI0
aI0
aI0
aF10.273439859667517
aI0
aF7.2851723402861825
aI0
aI0
aF-5.588496319198405
aI0
aI0
aF5.300814246746624
aI0
aF-10.148658891029184
aI0
aI0
aF0.0
aF-5.300814246746624
aI0
aI0
aF5.077670695432414
aI0
aI0
aI0
aI0
aI0
aF0.0
aF4.384523514872469
aI0
aF11.987922854613139
aI0
aI0
aI0
aI0
aF-5.993961427306569
aI0
aF7.26226946509075
aF-5.993961427306569
aF5.588496319198405
aI0
aI0
aI0
aI0
aI0
aI0
aI0
aF-20.107696604415718
aF10.148658891029184
aI0
aF3.742669628700074
aF5.993961427306569
aF-4.895349138638459
aI0
aI0
aF5.265550632063679
aF10.148658891029184
aI0
aI0
aI0
aI0
aI0
aI0
aF-5.300814246746624
aF5.993961427306569
aI0
aF5.993961427306569
aI0
aI0
aI0
aI0
aI0
aF4.1221592504049775
aI0
aI0
aF-4.1221592504049775
aF2.3011188669744302
aF3.7967368499703498
aF13.469652091590884
aF-1.3891400777006062
aF5.300814246746624
aF3.8538952638102986
aI0
aF-4.895349138638459
aI0
aI0
aI0
aF0.0
aF8.59724382178325
aI0
aI0
aI0
aI0
aI0
aF-4.6076670661866785
aI0
aI0
aF4.202201958078514
aI0
aF-4.6076670661866785
aF-4.712182478624991
aI0
aI0
aI0
aI0
aF15.397936514995715
aF-3.3198127778800406
aI0
aF10.148658891029184
aI0
aI0
aI0
aI0
aI0
aI0
aI0
aF5.077670695432414
aI0
aF-5.300814246746624
aF-5.300814246746624
aI0
aI0
aI0
aF11.728087050646273
aF-5.993961427306569
aI0
aI0
aI0
aF6.858024139690065
aF-3.509054777518569
aI0
aI0
aF-3.5516143919373646
aF0.28187999379667783
aF0.0
aF9.790698277276919
aF2.012150102186201
aI0
aI0
aI0
aI0
aF-4.895349138638459
aF-10.148658891029184
aI0
aF-5.8722285580591675
aI0
aI0
aI0
aI0
aI0
aF-10.323411140027133
aI0
aF5.993961427306569
aF-0.877128723088112
aF5.077670695432414
aI0
aF4.489884030530295
aF0.0
aI0
aI0
aF-4.384523514872469
aI0
aF-24.819209899255206
aI0
aF-22.852728422384995
aF-7.538164013912633
aF-12.443746064021074
aI0
aF-9.791891040203852
aF5.993961427306569
aF-5.993961427306569
aF53.308811741086345
aF41.14108058553203
aF-10.148658891029184
aF-3.7967368499703498
aF-8.027546803011344
aI0
aF-8.096102556502512
aI0
aI0
aF-8.722901128262716
aF5.300814246746624
aI0
aI0
aF7.958116813528609
aF-4.895349138638459
aF-4.289213335068144
aF-2.6797754226340436
aI0
aF-11.124353918169456
aF3.5516143919373646
aF0.0
aI0
aF-4.202201958078514
aI0
aF-5.588496319198405
aF-8.818792668688763
aF4.741198458811201
aI0
aI0
aI0
aI0
aI0
aI0
aI0
aI0
aF-4.289213335068144
aI0
aI0
aF0.0
aF0.0
aF4.384523514872469
aF-2.559974222821423
aI0
aF-5.590576619511776
aF5.359550845268087
aI0
aI0
aI0
aF-4.712182478624991
aI0
aI0
aI0
aI0
aI0
aF-2.4617915022075088
aF-5.588496319198405
aF-8.373637628453373
aI0
aI0
aF5.993961427306569
aI0
aI0
aF10.148658891029184
aF5.993961427306569
aI0
aI0
aI0
aI0
aF-4.6076670661866785
aF5.993961427306569
aI0
aI0
aI0
aF-6.088669270612601
aF0.0
aF0.0
aF-3.9790584067643047
aI0
aF4.895349138638459
aI0
aF-13.706332066841238
aI0
aF5.993961427306569
aI0
aF-4.895349138638459
aI0
aF-4.489884030530295
aI0
aF8.65081405874681
aF0.0
aI0
aI0
aF4.384523514872469
aF-5.300814246746624
aF5.588496319198405
aF-5.077670695432414
aI0
aF0.0
aF10.112902098027371
aI0
aI0
aI0
aF11.101581563047263
aI0
aI0
aI0
aI0
aF-8.096102556502512
aI0
aI0
aF5.993961427306569
aF-3.6742444498044122
aI0
aI0
aF-3.0495224481401286
aI0
aI0
aI0
aI0
aI0
aI0
aI0
aI0
aF10.273439859667517
aI0
aI0
aI0
aI0
aI0
aF5.993961427306569
aF12.778026041874444
aF8.096102556502512
aF2.2769009091842856
aI0
aF5.588496319198405
aF0.8700418364042841
aF5.993961427306569
aI0
aI0
aI0
aF9.45040098050454
aF0.0
aF-5.077670695432414
aI0
aI0
aF4.489884030530295
aI0
aI0
aF5.588496319198405
aI0
aI0
aF8.59724382178325
aF-8.578426670136288
aI0
aI0
aI0
aI0
aF5.300814246746624
aI0
aI0
aF-8.404403916157028
aI0
aF4.202201958078514
aF8.955176964604274
aF3.1121504568031977
aI0
aF5.993961427306569
aI0
aI0
aI0
aI0
aI0
aI0
aF-9.836685374879593
aI0
aF-8.975058696551036
aI0
aF0.0
aI0
aI0
aF0.0
aF7.2851723402861825
aF10.148658891029184
aF0.0
aF-4.489884030530295
aI0
aI0
aI0
aI0
aI0
aF4.741198458811201
aF-5.993961427306569
aF5.993961427306569
aF9.462146786420412
aI0
aI0
aI0
aF9.813175109829654
aF0.0
aI0
aI0
aI0
aI0
aI0
aI0
aI0
aI0
aF-7.602034487333492
aI0
aI0
aF5.300814246746624
aF10.214696598531596
aI0
aI0
aI0
aF-5.588496319198405
aI0
aF-5.993961427306569
aF4.895349138638459
aF0.0
aF-5.588496319198405
aF11.313895147211486
aI0
aF-6.719584420057025
aF2.2682680000699165
aI0
aF-1.88564961853021
aI0
aF5.993961427306569
aI0
aI0
aI0
aI0
aI0
aI0
aF5.993961427306569
aI0
aI0
aF7.423643627305102
aI0
aI0
aI0
aI0
aF-13.249866419516966
aF8.578426670136288
aI0
aI0
aF5.300814246746624
aF3.7074904895370584
aI0
aF-9.173473780798789
aF4.895349138638459
aF-5.588496319198405
aI0
aI0
aF-16.115429018644427
aI0
aI0
aI0
aI0
aI0
aI0
aF4.489884030530295
aI0
aF2.7580731159320258
aI0
aF-2.669845222650036
aI0
aF-3.884352959006528
aF-13.24683365295138
aI0
aF-9.94993734867549
aI0
aI0
aI0
aF0.0
aI0
aI0
aF-10.148658891029184
aI0
aI0
aF-4.489884030530295
aI0
aF0.0
aI0
aI0
aI0
aI0
aI0
aI0
aI0
aI0
aI0
aF-13.585938443138126
aF-6.733372054128594
aI0
aF-4.048051278251256
aI0
aF0.47602389974099957
aF3.160748083250353
aI0
aI0
aF-1.7971670880956228
aF0.0
aI0
aF5.993961427306569
aI0
aI0
aF10.148658891029184
aF-4.6076670661866785
aF3.2863483442001424
aF-5.077670695432414
aI0
aF4.6076670661866785
aF-5.151407427738029
aI0
aF0.0
aI0
aI0
aI0
aI0
aF-7.316787220390998
aF-9.462146786420412
aI0
aF-10.273439859667517
aI0
aI0
aF-4.489884030530295
aF0.6991288800872759
aF3.7967368499703498
aI0
aI0
aI0
aI0
aI0
aI0
aI0
aF-5.993961427306569
aI0
aF-5.993961427306569
aI0
aI0
aI0
aI0
aI0
aI0
aF10.148658891029184
aI0
aI0
aF-5.588496319198405
aF-9.682471713422713
aI0
aF4.6076670661866785
aI0
aI0
aI0
aI0
aI0
aI0
aF4.202201958078514
aI0
aF0.0
aF5.300814246746624
aF-9.03525051174636
aI0
aF-4.289213335068144
aF3.742669628700074
aF6.78254348372437
aI0
aF4.384523514872469
aI0
aF-5.300814246746624
aI0
aI0
aI0
aI0
aF-0.005014676848382055
aF13.996811170113858
aF-7.5934736999406995
aF16.62505855557076
aI0
aF4.741198458811201
aF-0.16883504991804607
aI0
aF5.300814246746624
aI0
aF5.588496319198405
aI0
aI0
aF-5.077670695432414
aF-2.9127444393856035
aI0
aF0.0
aF8.975058696551036
aF-8.578426670136288
aF-4.384523514872469
aI0
aF0.0
aI0
aF-7.785949215835137
aF-5.993961427306569
aF-5.588496319198405
aI0
aF10.17250987363109
aI0
aI0
aF-4.741198458811201
aF8.59724382178325
aI0
aI0
aF0.0
aI0
aI0
aI0
aI0
aI0
aF-3.1906010464000345
aI0
aF-2.528225524506843
aF5.077670695432414
aF-5.588496319198405
aI0
aF3.9790584067643047
aF-5.300814246746624
aF-11.987922854613139
aI0
aF5.300814246746624
aI0
aI0
aI0
aF0.7439427915851855
aI0
aI0
aI0
aF-2.9796934005798077
aF-4.447331450376324
aI0
aF11.7435596568802
aI0
aI0
aI0
aI0
aI0
aF-5.993961427306569
aI0
aF-2.3506504463843885
aF-0.9523452404436092
aF9.462146786420412
aI0
aF5.993961427306569
aI0
aI0
aI0
aF-5.993961427306569
aF0.6297784728468829
aF-7.644376099194798
aF5.351611705615587
aI0
aI0
aI0
aI0
aI0
aI0
aF-5.993961427306569
aF-5.300814246746624
aI0
aF-5.588496319198405
aI0
aF5.252700152411158
aI0
aF5.993961427306569
aF-9.462146786420412
aI0
aI0
aI0
aI0
aI0
aI0
aI0
aF12.774109636964813
aF0.0
aI0
aI0
aF5.588496319198405
aF-18.00279162738627
aI0
aI0
aF5.993961427306569
aF-4.489884030530295
aI0
aI0
aI0
aI0
aF-13.666637312971321
aF-5.993961427306569
aF4.384523514872469
aI0
aI0
aF5.300814246746624
aF-10.148658891029184
aI0
aF-5.300814246746624
aI0
aI0
aI0
aI0
aF-5.993961427306569
aI0
aI0
aI0
aI0
aI0
aF-5.993961427306569
aF-4.1221592504049775
aF-5.3619613782148505
aI0
aF12.768745261822545
aI0
aI0
aF4.741198458811201
aF-5.993961427306569
aF-7.018109555037138
aF18.371417964474944
aI0
aF5.300814246746624
aI0
aI0
aF-8.207594667855261
aI0
aF-11.043545355412862
aF-11.728087050646273
aF-5.588496319198405
aI0
aI0
aI0
aI0
aI0
aI0
aF-4.489884030530295
aF10.148658891029184
aI0
aI0
aI0
aF-10.217102154721086
aI0
aI0
aF4.489884030530295
aI0
aI0
aI0
aI0
aF-5.588496319198405
aI0
aI0
aI0
aF16.42516816491608
aF10.148658891029184
aI0
aF10.601628493493248
aI0
aF-6.381202092800069
aI0
aF10.148658891029184
aF5.588496319198405
aI0
aI0
aF-5.993961427306569
aI0
aF-10.273439859667517
aF-12.139020370403301
aI0
aF-5.588496319198405
aI0
aF9.462146786420412
aI0
aI0
aF-5.993961427306569
aI0
aF-5.588496319198405
aI0
aI0
aF-5.993961427306569
aF-5.077670695432414
aI0
aI0
aF-4.289213335068144
aI0
aI0
aI0
aI0
aI0
aI0
aF10.148658891029184
aF11.728087050646273
aI0
aF-5.300814246746624
aI0
aI0
aI0
aF-9.659841938815138
aF8.59724382178325
aF-3.6913763343125234
aF0.0
aF-5.300814246746624
aI0
aF-5.077670695432414
aI0
aI0
aF-11.882692405971943
aF-8.65081405874681
aI0
aF8.975058696551036
aF4.895349138638459
aI0
aI0
aI0
aF-5.077670695432414
aI0
aF-4.384523514872469
aI0
aI0
aI0
aI0
aI0
aF5.993961427306569
aF7.040642966717981
aI0
aF-9.395281639131301
aI0
aI0
aF-9.857733678613078
aF-9.810020674067516
aI0
aI0
aF-5.077670695432414
aF-10.80581069844494
aI0
aF5.077670695432414
aF4.048051278251256
aF5.993961427306569
aF16.634200792305812
aI0
aF-2.6316974428849966
aI0
aI0
aI0
aI0
aI0
aI0
aF3.0586421784987032
aI0
aI0
aI0
aI0
aI0
aF-3.742669628700074
aI0
aF-4.6076670661866785
aF-2.9029189739482533
aF-3.4682327829983137
aI0
aF28.320999152483132
aF0.0
aF-3.7967368499703498
aI0
aF5.80582211816414
aF-5.993961427306569
aI0
aI0
aF-5.119310013555367
aI0
aI0
aF4.202201958078514
aI0
aF-7.423643627305101
aF-3.6425861701430913
aF-3.4682327829983137
aF-3.393197453303805
aF-6.088669270612601
aI0
aF-1.820491313832088
aF16.42516816491608
aI0
aI0
aI0
aI0
aI0
aI0
aI0
aF-5.077670695432414
aF17.113061467607277
aI0
aF-5.300814246746624
aI0
aI0
aI0
aI0
aI0
aF-12.116816948134085
aI0
aI0
aI0
aI0
aI0
aF5.588496319198405
aF-13.518357577897994
aI0
aF4.6076670661866785
aF-4.384523514872469
aF0.0
aF5.588496319198405
aF5.588496319198405
aI0
aI0
aI0
aI0
aI0
aF-10.527164332555706
aI0
aF5.993961427306569
aI0
aI0
aF-6.250043432826955
aI0
aF-5.300814246746624
aF-10.235325595113354
aI0
aI0
aI0
aI0
aI0
aF5.588496319198405
aI0
aF5.300814246746624
aI0
aF-8.59724382178325
aI0
aI0
aF-10.148658891029184
aF16.263665278783883
aI0
aI0
aF0.0
aI0
aI0
aI0
aI0
aI0
aI0
aF-3.8736504672220073
aF9.565020286082238
aI0
aF-4.1221592504049775
aI0
aI0
aI0
aI0
aI0
aI0
aF5.993961427306569
aI0
aI0
aI0
aI0
aI0
aF0.0
aF-0.03950745747246508
aI0
aI0
aF-5.077670695432414
aF-8.97976806106059
aF3.914519885626733
aI0
aI0
aI0
aI0
aI0
aF3.391271741862185
aI0
aF-11.728087050646273
aI0
aF-12.086467488483565
aI0
aI0
aF5.588496319198405
aF10.148658891029184
aI0
aF5.588496319198405
aI0
aI0
aF-5.993961427306569
aI0
aF5.588496319198405
aI0
aI0
aF10.148658891029184
aI0
aI0
aF-5.077670695432414
aI0
aI0
aI0
aI0
aF12.585160465928297
aF5.993961427306569
aF-5.300814246746624
aI0
aI0
aF-5.550171204876737
aF5.588496319198405
aI0
aF-3.391271741862185
aI0
aI0
aI0
aF9.632119625337511
aI0
aF4.895349138638459
aF-5.993961427306569
aF0.0
aI0
aI0
aF5.077670695432414
aI0
aI0
aI0
aF-10.148658891029184
aI0
aF-5.300814246746624
aI0
aI0
aF-5.588496319198405
aI0
aI0
aI0
aI0
aF-8.975058696551036
aI0
aI0
aF0.0
aI0
aF3.4682327829983137
aI0
aI0
aI0
aI0
aI0
aF5.588496319198405
aI0
aF-10.148658891029184
aI0
aF9.836685374879593
aI0
aF-8.59724382178325
aI0
aI0
aF-10.148658891029184
aF-3.9028430438706625
aI0
aI0
aF-5.993961427306569
aI0
aI0
aF5.993961427306569
aI0
aI0
aF-5.993961427306569
aF-5.077670695432414
aI0
aF8.027546803011344
aI0
aF-6.455731595279994
aI0
aI0
aI0
aI0
aF-12.191084454331545
aF-5.588496319198405
aI0
aI0
aI0
aI0
aI0
aF-4.741198458811201
aF-8.404403916157028
aF4.489884030530295
aI0
aI0
aI0
aF4.048051278251256
aI0
aI0
aI0
aF-6.167434503924425
aF10.148658891029184
aI0
aI0
aI0
aF5.588496319198405
aF5.588496319198405
aF-5.993961427306569
aF-10.148658891029184
aI0
aI0
aF3.6425861701430913
aF10.148658891029184
aI0
aF-5.993961427306569
aF11.987922854613139
aI0
aI0
aF-8.975058696551036
aI0
aI0
aI0
aI0
aI0
aI0
aI0
aI0
aF11.313895147211486
aI0
aI0
aI0
aF0.0
aI0
aF5.588496319198405
aF-4.1221592504049775
aF-3.4290120698450326
aI0
aF-10.148658891029184
aI0
aI0
aF0.0
aI0
aF8.244318500809955
aF-10.148658891029184
aF-3.6913763343125234
aI0
aI0
aI0
aI0
aF5.077670695432414
aI0
aI0
aF-4.6076670661866785
aI0
aF-12.64930314635545
aF2.061098469798556
aI0
aF-5.993961427306569
aI0
aI0
aI0
aI0
aI0
aI0
aI0
aF-2.012150102186201
aI0
aF-5.588496319198405
aI0
aF3.8538952638102986
aF-4.895349138638459
aF10.148658891029184
aI0
aF-5.300814246746624
aI0
aF4.289213335068144
aI0
aI0
aF-4.289213335068144
aI0
aI0
aF5.300814246746624
aF8.288546591942264
aI0
aF3.3549040976913105
aI0
aF0.0
aI0
aI0
aF4.895349138638459
aF-5.993961427306569
aF0.0
aI0
aF-3.023546961736868
aF5.993961427306569
aI0
aI0
aF16.246566054099958
aI0
aI0
aI0
aI0
aI0
aI0
aI0
aI0
aF-5.077670695432414
aI0
aI0
aI0
aI0
aI0
aF17.824038608957913
aF-5.993961427306569
aI0
aF-5.588496319198405
aI0
aI0
aI0
aI0
aF-4.289213335068144
aI0
aF-17.82957372479567
aI0
aF-11.728087050646273
aF5.077670695432414
aI0
aF5.300814246746624
aF-8.404403916157028
aI0
aF0.0
aI0
aF-0.99822947460836
aI0
aI0
aI0
aF-9.462146786420412
aF-2.3768100483191064
aF-6.428434292855346
aF-10.238620027110734
aI0
aF0.0
aF-5.993961427306569
aF-4.1221592504049775
aI0
aI0
aI0
aI0
aI0
aI0
aI0
aI0
aI0
aF-3.9790584067643047
aI0
aI0
aI0
aF-13.674914517215665
aF4.895349138638459
aI0
aI0
aI0
aI0
aI0
aI0
aF-4.895349138638459
aF11.611675895793013
aF4.895349138638459
aI0
aF5.993961427306569
aI0
aI0
aI0
aI0
aI0
aI0
aF7.423643627305102
aI0
aF0.0
aI0
aF4.289213335068144
aI0
aI0
aI0
aI0
aF-16.205957642228473
aF4.741198458811201
aI0
aI0
aI0
aI0
aI0
aF0.0
aI0
aI0
aI0
aI0
aF-7.602034487333492
aF4.489884030530295
aI0
aF-4.384523514872469
aI0
aF-10.148658891029184
aI0
aF5.300814246746624
aI0
aI0
aF5.077670695432414
aF-4.048051278251256
aI0
aI0
aF9.684735425120799
aF-9.462146786420412
aF-4.895349138638459
aI0
aF-4.384523514872469
aI0
aF0.0
aF5.300814246746624
aF11.80816714217757
aI0
aI0
aI0
aF11.987922854613139
aI0
aF8.769047029744938
aF-5.993961427306569
aI0
aF-13.534256773778164
aF5.300814246746624
aI0
aI0
aF5.588496319198405
aI0
aF5.077670695432414
aF-7.602034487333492
aI0
aI0
aF-8.207594667855261
aF-5.300814246746624
aI0
aI0
aI0
aF-2.5248483337813337
aI0
aI0
aF-5.300814246746624
aI0
aF0.17878532732406693
aF-4.384523514872469
aI0
aI0
aI0
aI0
aI0
aI0
aI0
aI0
aI0
aI0
aI0
aI0
aI0
aI0
aI0
aI0
aF3.352946627540517
aI0
aI0
aI0
aI0
aF-4.895349138638459
aI0
aI0
aI0
aI0
aF-3.3198127778800406
aI0
aI0
aI0
aF-0.715089743276625
aF-5.300814246746624
aF-12.64930314635545
aF3.2213727050667877
aF12.33486900784885
aF10.148658891029184
aI0
aI0
aF-3.4682327829983137
aF4.741198458811201
aI0
aI0
aI0
aI0
aF5.588496319198405
aF-5.588496319198405
aF18.81375226524964
aI0
aF-9.60190396212068
aI0
aI0
aF-5.993961427306569
aI0
aI0
aI0
aF-8.975058696551036
aI0
aF-5.993961427306569
aI0
aI0
aF0.0
aI0
aF0.0
aI0
aI0
aI0
aF-4.741198458811201
aF1.3585550575268739
aI0
aF3.7967368499703498
aF-7.707790527620597
aF16.990580315393473
aI0
aF6.506242806762737
aF8.975058696551036
aI0
aF1.1405605954821736
aF2.973056130022605
aI0
aI0
aI0
aF4.741198458811201
aI0
aI0
aI0
aF5.119310013555367
aI0
aF5.077670695432414
aI0
aI0
aI0
aF5.300814246746624
aI0
aI0
aF-8.404403916157028
aI0
aF15.52581052185477
aI0
aI0
aF5.993961427306569
aF7.382752668625047
aI0
aF-4.384523514872469
aF0.0
aF-4.489884030530295
aF10.601628493493248
aI0
aI0
aI0
aF-5.300814246746624
aF-5.993961427306569
aI0
aI0
aI0
aF11.728087050646273
aI0
aI0
aI0
aI0
aI0
aI0
aI0
aI0
aI0
aI0
aI0
aI0
aI0
aI0
aI0
aF7.80145850207289
aF-14.847287254610205
aF11.937175220292914
aF3.1937914358862116
aI0
aI0
aI0
aI0
aI0
aI0
aI0
aF5.588496319198405
aI0
aF-5.077670695432414
aF5.993961427306569
aI0
aF5.993961427306569
aF9.83536972448332
aI0
aI0
aF4.741198458811201
aF-4.289213335068144
aF4.895349138638459
aF-4.6076670661866785
aI0
aF5.993961427306569
aI0
aF-4.895349138638459
aF12.885490820267151
aF0.0
aI0
aF10.148658891029184
aF4.895349138638459
aF4.489884030530295
aF5.993961427306569
aI0
aI0
aI0
aF-3.1906010464000345
aI0
aI0
aI0
aI0
aF3.751319647535494
aF-9.462146786420412
aI0
aI0
aI0
aF2.5248483337813337
aI0
aI0
aF-8.975058696551036
aI0
aI0
aI0
aF10.71418494413669
aF12.260557200614553
aI0
aI0
aF5.588496319198405
aF-5.300814246746624
aF19.23672140880649
aI0
aF17.60358974751786
aF-5.993961427306569
aI0
aI0
aF0.0
aI0
aF-10.72031456721807
aI0
aI0
aI0
aF-5.993961427306569
aF-4.289213335068144
aI0
aI0
aI0
aI0
aI0
aI0
aI0
aI0
aI0
aF4.1221592504049775
aF0.0
aF-4.985206232208805
aI0
aF3.7967368499703498
aF6.4427454101335755
aF3.509054777518569
aI0
aI0
aI0
aI0
aI0
aI0
aI0
aI0
aI0
aI0
aI0
aI0
aI0
aF5.077670695432414
aF-3.742669628700074
aI0
aI0
aI0
aF-4.895349138638459
aF-5.993961427306569
aF-13.249866419516966
aI0
aF8.769047029744938
aF-3.914519885626733
aF9.482396917622403
aF5.993961427306569
aI0
aI0
aI0
aI0
aF-8.664475848174865
aI0
aF5.208443602480359
aF-6.088669270612601
aF-9.34046134105748
aF5.993961427306569
aF-4.1221592504049775
aI0
aI0
aI0
aF-5.588496319198405
aI0
aI0
aI0
aI0
aI0
aI0
aI0
aI0
aF14.330286715986905
aI0
aF3.3198127778800406
aI0
aI0
aI0
aI0
aI0
aF-8.333147478898397
aF-3.8538952638102986
aI0
aI0
aI0
aF0.04236297595287253
aI0
aI0
aI0
aI0
aF-5.993961427306569
aI0
aI0
aI0
aI0
aF9.42252580116558
aI0
aI0
aI0
aI0
aF-4.741198458811201
aI0
aI0
aI0
aF-3.8538952638102986
aF0.0
aI0
aF-5.077670695432414
aF-10.527164332555706
aF-7.2799999550596395
aI0
aI0
aF5.588496319198405
aI0
aI0
aF4.489884030530295
aI0
aI0
aI0
aI0
aF4.895349138638459
aF-5.993961427306569
aF5.300814246746624
aI0
aF-4.895349138638459
aI0
aI0
aF-4.6076670661866785
aI0
aI0
aI0
aI0
aI0
aF-4.895349138638459
aF10.148658891029184
aI0
aF-15.415581055241194
aF-6.627858307594743
aI0
aI0
aI0
aF3.6913763343125234
aF3.6913763343125234
aI0
aI0
aI0
aF5.077670695432414
aI0
aI0
aI0
aF-10.148658891029184
aF-4.741198458811201
aI0
aI0
aI0
aI0
aI0
aI0
aI0
aI0
aF0.10958505738754837
aI0
aF15.204068974666985
aI0
aF18.40229386222617
aF3.3549040976913105
aF-9.42252580116558
aI0
aI0
aI0
aI0
aI0
aF0.0
aF-13.249866419516966
aI0
aI0
aI0
aF8.094872907088305
aF0.0
aI0
aI0
aF-4.384523514872469
aF7.935114365189523
aF3.6913763343125234
aF4.1221592504049775
aF8.769047029744938
aF-8.975058696551036
aF0.0
aF8.641338354288584
aI0
aF-5.300814246746624
aI0
aI0
aF4.6076670661866785
aI0
aF5.300814246746624
aI0
aI0
aF5.588496319198405
aF12.091918517863787
aI0
aF19.907091619183205
aF-3.914519885626733
aI0
aI0
aI0
aF0.0
aI0
aF9.482396917622403
aF-27.66399982922664
aI0
aF-4.536536000139833
aI0
aI0
aF5.588496319198405
aF5.993961427306569
aF5.0564510490136865
aI0
aF5.993961427306569
aI0
aF5.077670695432414
aF12.091918517863787
aI0
aI0
aF-5.300814246746624
aF4.6076670661866785
aI0
aF4.6076670661866785
aI0
aI0
aI0
aI0
aF-5.300814246746624
aI0
aF-5.300814246746624
aI0
aF-5.588496319198405
aI0
aI0
aF-10.148658891029184
aI0
aI0
aI0
aI0
aF5.300814246746624
aI0
aI0
aI0
aF5.300814246746624
aF5.588496319198405
aF5.588496319198405
aF5.993961427306569
aI0
aI0
aI0
aI0
aI0
aI0
aI0
aI0
aI0
aI0
aI0
aI0
aF-4.202201958078514
aI0
aF-5.898877979166292
aI0
aF-4.741198458811201
aI0
aF-5.077670695432414
aI0
aF-10.656062119244412
aI0
aI0
aF5.300814246746624
aI0
aI0
aI0
aF-5.993961427306569
aF10.901997886784454
aF4.289213335068144
aF-4.741198458811201
aI0
aF-5.588496319198405
aF6.820650866303262
aF16.191463199966435
aF5.077670695432414
aI0
aF-5.760892236192389
aF-5.077670695432414
aI0
aF10.656062119244412
aI0
aI0
aF-5.993961427306569
aI0
aI0
aI0
aI0
aI0
aI0
aI0
aI0
aI0
aF-5.993961427306569
aI0
aF0.0
aI0
aI0
aF11.7435596568802
aI0
aF-9.34046134105748
aF-4.741198458811201
aF5.510565950284377
aF-5.993961427306569
aI0
aI0
aI0
aI0
aF-1.2719793802134065
aI0
aI0
aF-0.0049937603971742925
aI0
aF3.9790584067643047
aF4.384523514872469
aF-4.489884030530295
aI0
aF-11.135631749182584
aF-2.3768100483191072
aF-4.741198458811201
aF8.578426670136288
aF-4.048051278251256
aF-5.588496319198405
aF-5.898877979166292
aF-13.249866419516966
aI0
aI0
aF-2.661756917131365
aI0
aI0
aF5.077670695432414
aI0
aI0
aF-4.6076670661866785
aI0
aI0
aI0
aF-19.818887094981633
aI0
aI0
aF-5.993961427306569
aF5.077670695432414
aI0
aI0
aF-5.993961427306569
aI0
aF11.17699263839681
aI0
aI0
aI0
aF10.148658891029184
aI0
aI0
aI0
aI0
aF-3.2213727050667877
aI0
aI0
aI0
aF-0.3546163136979832
aI0
aF0.0
aI0
aF9.462146786420412
aI0
aF-4.6076670661866785
aI0
aI0
aI0
aI0
aI0
aF0.0
aF2.3254423163637394
aF0.0
aI0
aI0
aF3.1317605463771008
aI0
aI0
aF-0.9200150691563476
aF5.993961427306569
aI0
aF11.728087050646273
aI0
aF8.578426670136288
aF8.581272386717004
aI0
aI0
aI0
aI0
aF-7.5934736999406995
aI0
aI0
aF4.6076670661866785
aI0
aF-10.148658891029184
aF4.741198458811201
aF-6.803921648886307
aF4.895349138638459
aF-5.993961427306569
aF-13.799911578229816
aI0
aF-10.148658891029184
aF-3.2859112262043593
aI0
aI0
aI0
aF-5.993961427306569
aI0
aI0
aF2.265021241642285
aF5.993961427306569
aI0
aF-5.588496319198405
aI0
aI0
aI0
aI0
aF-10.148658891029184
aI0
aF-0.7035090172284959
aI0
aI0
aI0
aI0
aI0
aF-4.048051278251256
aF-13.249866419516966
aI0
aI0
aI0
aI0
aI0
aI0
aI0
aI0
aF0.0
aI0
aF-10.148658891029184
aI0
aI0
aI0
aF-5.993961427306569
aI0
aI0
aF4.741198458811201
aI0
aI0
aI0
aI0
aF5.300814246746624
aI0
aF-4.741198458811201
aI0
aI0
aF0.0
aF0.0
aF4.289213335068144
aF-0.29815888579238203
aI0
aF5.300814246746624
aI0
aI0
aF4.895349138638459
aF-5.993961427306569
aF5.300814246746624
aI0
aF-4.489884030530295
aF-5.993961427306569
aI0
aI0
aF0.0
aI0
aI0
aI0
aF-3.5516143919373646
aI0
aI0
aF-5.993961427306569
aF-5.993961427306569
aI0
aI0
aI0
aI0
aI0
aF-7.382752668625047
aF11.17699263839681
aI0
aI0
aI0
aI0
aF-7.707790527620597
aF-3.6913763343125234
aI0
aF0.0
aI0
aI0
aF3.9790584067643047
aI0
aI0
aF8.59724382178325
aF14.617055483814113
aF-8.288546591942264
aF-4.6076670661866785
aF-4.489884030530295
aI0
aI0
aI0
aI0
aI0
aF5.993961427306569
aI0
aF-9.669706727190702
aF-44.717590036737846
aI0
aI0
aF-8.818792668688763
aF-12.116816948134085
aF-4.895349138638459
aI0
aI0
aF0.0
aI0
aI0
aI0
aI0
aF10.656062119244412
aF5.993961427306569
aF-2.8572630622373083
aI0
aF9.810020674067516
aI0
aI0
aI0
aI0
aI0
aI0
aI0
aI0
aI0
aF8.975058696551036
aI0
aF-5.077670695432414
aI0
aF-7.79797694711322
aI0
aF4.489884030530295
aI0
aI0
aI0
aI0
aF-14.760987316317692
aF-18.017688635689108
aF8.578426670136288
aF10.148658891029184
aI0
aI0
aF0.0
aI0
aI0
aF-11.438144071599426
aI0
aF-5.077670695432414
aI0
aI0
aF9.462146786420412
aI0
aI0
aI0
aI0
aF-8.244318500809955
aF4.048051278251256
aI0
aI0
aI0
aI0
aI0
aF0.0
aF5.588496319198405
aF-12.867640005204432
aI0
aF0.0
aI0
aI0
aI0
aI0
aI0
aF-7.602034487333492
aF10.148658891029184
aF25.959398620476822
aF5.588496319198405
aF-5.993961427306569
aF-2.795288309755888
aI0
aI0
aI0
aF-16.45704831578593
aI0
aI0
aI0
aI0
aF-5.993961427306569
aI0
aF-8.385864929267663
aF-5.077670695432414
aF-5.993961427306569
aI0
aF5.588496319198405
aI0
aF16.46851053554168
aI0
aI0
aI0
aI0
aI0
aF-10.027690836849722
aF7.140768089418477
aI0
aF-5.077670695432414
aI0
aI0
aF-7.114946397464117
aF4.6076670661866785
aI0
aI0
aI0
aI0
aI0
aI0
aI0
aI0
aF14.69497233353918
aI0
aI0
aI0
aF-5.993961427306569
aI0
aI0
aF5.588496319198405
aF5.588496319198405
aI0
aF-10.148658891029184
aF-8.288546591942264
aF-8.975058696551036
aI0
aI0
aF-3.9790584067643047
aF-11.508077120984117
aF5.993961427306569
aI0
aI0
aI0
aF5.208738889864289
aI0
aI0
aI0
aI0
aI0
aI0
aF-2.805895330281941
aF-10.148658891029184
aF5.077670695432414
aI0
aF7.103228783874729
aI0
aI0
aF-5.993961427306569
aI0
aI0
aI0
aI0
aI0
aI0
aI0
aI0
aF5.077670695432414
aI0
aF10.148658891029184
aF-9.941419767139479
aF5.993961427306569
aI0
aI0
aF5.588496319198405
aI0
aI0
aI0
aI0
aI0
aF5.993961427306569
aF-10.148658891029184
aI0
aI0
aF0.0
aI0
aF4.384523514872469
aF-9.070640885210604
aI0
aF-5.077670695432414
aF0.0
aI0
aF-3.509054777518569
aF3.742669628700074
aI0
aI0
aI0
aF3.6913763343125234
aI0
aI0
aF0.0
aI0
aI0
aF0.0
aI0
aI0
aI0
aF11.728087050646273
aI0
aF7.114946397464117
aF10.148658891029184
aF-5.300814246746624
aI0
aI0
aI0
aI0
aI0
aI0
aF5.300814246746624
aF5.300814246746624
aI0
aI0
aF-5.993961427306569
aI0
aF4.202201958078514
aI0
aI0
aI0
aI0
aI0
aI0
aF-4.741198458811201
aI0
aF3.6913763343125234
aI0
aF-3.1906010464000345
aI0
aI0
aI0
aI0
aI0
aI0
aI0
aF-8.975058696551036
aI0
aF-9.03525051174636
aF-8.087831959872121
aI0
aF10.148658891029184
aF5.077670695432414
aI0
aI0
aI0
aI0
aF-5.993961427306569
aF5.077670695432414
aI0
aF-6.979422312642286
aI0
aF-10.601628493493248
aI0
aI0
aF-7.95811681352861
aI0
aI0
aF4.741198458811201
aF5.993961427306569
aI0
aI0
aI0
aF-4.6076670661866785
aF0.0
aI0
aI0
aI0
aF-3.3549040976913105
aF8.975058696551036
aF-5.993961427306569
aI0
aF-5.300814246746624
aF-5.993961427306569
aF-8.288546591942264
aI0
aI0
aI0
aF-8.027546803011344
aI0
aI0
aI0
aF0.0
aF-10.155341390864828
aI0
aI0
aI0
aF-5.300814246746624
aI0
aI0
aI0
aI0
aF-2.197200303649021
aF4.202201958078514
aF-4.895349138638459
aI0
aF-8.288546591942264
aI0
aF-13.255716615189487
aI0
aF-5.993961427306569
aI0
aI0
aF-5.993961427306569
aF17.637585337377526
aI0
aF-10.148658891029184
aI0
aI0
aI0
aI0
aI0
aF10.656062119244412
aI0
aI0
aI0
aI0
aI0
aI0
aI0
aI0
aI0
aI0
aF8.975058696551036
aI0
aI0
aI0
aI0
aF5.588496319198405
aI0
aI0
aF-8.404403916157028
aI0
aI0
aF-9.389509659447276
aF2.998229153752578
aI0
aF-4.895349138638459
aF-2.801649142335369
aF-4.384523514872469
aF-2.9029189739482533
aI0
aI0
aI0
aI0
aI0
aF-10.148658891029184
aF3.160748083250353
aI0
aI0
aI0
aI0
aI0
aI0
aI0
aI0
aI0
aI0
aI0
aF-9.759364210144106
aI0
aI0
aF5.588496319198405
aF-5.993961427306569
aI0
aF-3.6742444498044122
aF8.096102556502512
aF-4.895349138638459
aI0
aF-10.273439859667517
aI0
aI0
aI0
aF-2.113767886982592
aF10.148658891029184
aI0
aF-16.668249069956968
aF7.27847593836186
aF-4.202201958078514
aI0
aF-10.542378193221477
aF6.858024139690065
aI0
aI0
aI0
aF-5.577266997600276
aI0
aF9.462146786420412
aI0
aI0
aI0
aF8.59724382178325
aI0
aI0
aI0
aI0
aI0
aF-7.80145850207289
aF-1.201181463658723
aI0
aF4.895349138638459
aI0
aF-9.790698277276919
aI0
aI0
aI0
aF-4.048051278251256
aI0
aI0
aI0
aI0
aI0
aI0
aF9.790698277276919
aI0
aI0
aI0
aF-5.300814246746624
aF5.993961427306569
aF5.993961427306569
aI0
aI0
aI0
aI0
aI0
aF-3.1906010464000345
aF-4.202201958078514
aI0
aF11.987922854613139
aF8.97976806106059
aI0
aF7.829039771253466
aI0
aF0.0
aI0
aF-5.993961427306569
aI0
aI0
aI0
aF-4.489884030530295
aI0
aI0
aF-3.393197453303805
aI0
aI0
aI0
aI0
aF10.148658891029184
aF5.993961427306569
aI0
aF8.97976806106059
aI0
aI0
aI0
aI0
aI0
aF10.637911459801801
aF5.588496319198405
aI0
aI0
aI0
aI0
aF0.0
aF5.588496319198405
aF0.0
aI0
aI0
aI0
aF19.279249814090385
aI0
aF5.300814246746624
aF-10.404698348994941
aF2.2548919287730085
aF-1.3848732756797322
aI0
aI0
aI0
aF-5.300814246746624
aI0
aI0
aI0
aI0
aI0
aF4.048051278251256
aI0
aI0
aF-5.993961427306569
aI0
aI0
aI0
aI0
aF5.993961427306569
aI0
aF-2.795288309755888
aF-5.588496319198405
aF0.0
aI0
aI0
aF-5.993961427306569
aF0.0
aF5.300814246746624
aF-4.289213335068144
aI0
aI0
aF12.366477751214934
aF12.772973309151787
aF6.979422312642286
aF-9.215334132373357
aI0
aI0
aF15.204068974666985
aI0
aF5.993961427306569
aF-13.398877113170219
aF4.741198458811201
aI0
aF-5.588496319198405
aF5.300814246746624
aI0
aI0
aF5.993961427306569
aI0
aI0
aI0
aF-5.993961427306569
aI0
aF11.987922854613139
aF0.0
aI0
aI0
aI0
aI0
aF6.15238139044458
aI0
aI0
aI0
aF5.993961427306569
aF5.993961427306569
aI0
aI0
aI0
aF0.0
aI0
aI0
aI0
aI0
aI0
aF14.311857679543108
aF-8.35050086976372
aI0
aF7.192132309016397
aI0
aI0
aI0
aI0
aI0
aI0
aI0
aI0
aI0
aF10.148658891029184
aF8.975058696551036
aF-4.202201958078514
aF-10.148658891029184
aI0
aF-5.993961427306569
aI0
aF-5.671708799123512
aI0
aF10.601628493493248
aF0.0
aI0
aI0
aF9.462146786420412
aI0
aI0
aI0
aF-3.7967368499703498
aI0
aI0
aF24.68903086513818
aI0
aI0
aI0
aI0
aI0
aI0
aF-4.741198458811201
aI0
aI0
aI0
aF5.588496319198405
aI0
aI0
aI0
aI0
aF4.895349138638459
aI0
aI0
aF-17.30162811749362
aI0
aI0
aF4.384523514872469
aF-5.993961427306569
aI0
aF-5.993961427306569
aI0
aI0
aI0
aI0
aF-11.987922854613139
aI0
aF0.0
aF-11.124353918169456
aF-9.94993734867549
aI0
aI0
aF5.588496319198405
aI0
aF-5.588496319198405
aI0
aF10.148658891029184
aI0
aF-2.9029189739482533
aF-5.077670695432414
aI0
aI0
aI0
aF11.17699263839681
aI0
aF-5.300814246746624
aF0.0
aI0
aF5.588496319198405
aI0
aI0
aF10.064712293073931
aF-5.993961427306569
aF-5.077670695432414
aI0
aI0
aF5.588496319198405
aI0
aF-8.575401634132259
aI0
aF0.0
aI0
aF4.895349138638459
aI0
aI0
aI0
aF-5.588496319198405
aI0
aI0
aF-10.148658891029184
aI0
aF5.588496319198405
aI0
aF-5.034635010960763
aI0
aF4.895349138638459
aF5.993961427306569
aF-5.077670695432414
aI0
aI0
aF4.741198458811201
aI0
aI0
aI0
aI0
aI0
aF-5.300814246746624
aF3.3549040976913105
aF0.0
aF11.987922854613139
aF0.2776830928140064
aI0
aI0
aI0
aF9.001395813693135
aF5.588496319198405
aI0
aI0
aI0
aI0
aI0
aF-9.201414928265658
aI0
aF0.0
aF5.993961427306569
aI0
aI0
aF17.02471957773188
aF9.482396917622403
aF-9.215334132373357
aF-26.730408276749976
aF-8.288546591942264
aI0
aI0
aI0
aF2.6713166362834357
aI0
aF3.1906010464000345
aF-4.741198458811201
aF0.0
aI0
aF0.0
aI0
aI0
aI0
aI0
aF8.975058696551036
aI0
aI0
aI0
aF3.4290120698450326
aI0
aI0
aI0
aF-3.509054777518569
aI0
aF-5.588496319198405
aF3.6913763343125234
aF7.262269465090749
aF-12.193066829085776
aI0
aF5.741922188246574
aI0
aF4.289213335068144
aF-5.300814246746624
aI0
aF8.59724382178325
aI0
aF10.148658891029184
aI0
aI0
aF-3.7967368499703498
aF4.741198458811201
aI0
aF0.0
aF-11.317148355542631
aI0
aF3.160748083250353
aI0
aF6.387582871772423
aI0
aI0
aF-2.0147442037884264
aI0
aI0
aI0
aI0
aF-5.300814246746624
aF-3.4682327829983137
aI0
aI0
aF10.148658891029184
aI0
aF5.550171204876737
aI0
aF10.148658891029184
aF5.588496319198405
aI0
aF11.566052632041462
aI0
aF-5.300814246746624
aI0
aI0
aI0
aF3.6746387114830243
aI0
aF2.565790618888645
aF5.077670695432414
aI0
aF10.148658891029184
aF-5.993961427306569
aF-11.805831856475418
aF-4.384523514872469
aI0
aI0
aI0
aI0
aI0
aI0
aF-14.95004916503571
aI0
aF3.2531214033813685
aF-8.265848925426566
aI0
aI0
aF-9.664118115200363
aI0
aF-5.40215716600383
aF5.076443238348809
aI0
aI0
aF5.588496319198405
aI0
aI0
aI0
aI0
aI0
aI0
aF-8.027546803011344
aF6.709808195382621
aF-5.993961427306569
aF-5.588496319198405
aI0
aI0
aI0
aI0
aI0
aI0
aF-4.289213335068144
aI0
aF-4.384523514872469
aF-11.728087050646273
aI0
aF-2.645856902134981
aF-2.9259084921729523
aI0
aI0
aI0
aF-4.741198458811201
aI0
aI0
aI0
aF-5.588496319198405
aF4.895349138638459
aI0
aI0
aI0
aF-8.35050086976372
aI0
aI0
aI0
aI0
aI0
aF-5.993961427306569
aI0
aF-3.742669628700074
aI0
aI0
aF3.914519885626733
aF-16.58387283637685
aF-5.993961427306569
aF10.148658891029184
aF-4.048051278251256
aF0.0
aF-5.300814246746624
aI0
aF-4.895349138638459
aF5.993961427306569
aF5.300814246746624
aI0
aI0
aF5.993961427306569
aF10.148658891029184
aF0.0
aI0
aI0
aF4.895349138638459
aF-7.5333407212598775
aF0.0
aF4.489884030530295
aI0
aF-5.077670695432414
aF-7.116964551684888
aF5.588496319198405
aI0
aI0
aI0
aI0
aF-13.802014841628143
aF-3.4682327829983137
aF-10.273439859667517
aI0
aI0
aI0
aI0
aF-8.055487990795577
aF-10.148658891029184
aI0
aI0
aI0
aI0
aI0
aF8.377047569212557
aI0
aF0.5803562798653807
aF-30.725617414533847
aF2.7580731159320258
aI0
aF-10.148658891029184
aF-5.993961427306569
aI0
aF-8.491041665594713
aI0
aI0
aF-3.9790584067643047
aI0
aI0
aI0
aF10.71418494413669
aF11.728087050646273
aF-4.489884030530295
aF4.741198458811201
aI0
aI0
aI0
aI0
aI0
aF5.993961427306569
aI0
aI0
aI0
aF-3.5516143919373646
aF-3.4290120698450326
aI0
aI0
aI0
aI0
aI0
aF-3.6913763343125234
aF4.202201958078514
aI0
aF4.384523514872469
aI0
aI0
aI0
aI0
aI0
aI0
aF-7.829039771253466
aI0
aI0
aI0
aI0
aI0
aF-2.925908492172953
aI0
aI0
aI0
aI0
aI0
aF-4.895349138638459
aF-11.728087050646273
aI0
aF-5.300814246746624
aI0
aI0
aI0
aI0
aI0
aF-3.914519885626733
aI0
aF-5.077670695432414
aI0
aI0
aI0
aF10.995249937959102
aI0
aI0
aF-4.489884030530295
aF-5.077670695432414
aF5.993961427306569
aI0
aI0
aF8.288546591942264
aF0.0
aI0
aI0
aI0
aF10.148658891029184
aF-5.300814246746624
aI0
aI0
aI0
aI0
aI0
aI0
aF-8.751608871770593
aF-5.993961427306569
aI0
aI0
aI0
aI0
aF-8.288546591942264
aI0
aF-1.1086965765050483
aF-11.39021054991105
aF-8.59724382178325
aI0
aI0
aF8.59724382178325
aI0
aF-3.914519885626733
aF-5.077670695432414
aI0
aI0
aI0
aI0
aI0
aI0
aI0
aF0.0
aI0
aI0
aF-5.077670695432414
aI0
aI0
aF5.993961427306569
aF5.077670695432414
aI0
aF-5.077670695432414
aF-8.288546591942264
aI0
aI0
aI0
aF-12.224254375121903
aF4.6076670661866785
aF5.588496319198405
aI0
aF4.202201958078514
aF8.97976806106059
aF3.7967368499703498
aI0
aF12.772973309151787
aI0
aI0
aF-5.300814246746624
aI0
aF-3.7967368499703498
aF-5.993961427306569
aF-4.081233903899053
aI0
aF5.993961427306569
aI0
aI0
aF5.993961427306569
aI0
aF-5.588496319198405
aF7.602034487333492
aI0
aF-1.2916591429711097
aF-5.6381548442964355
aI0
aF-8.288546591942264
aI0
aF-5.993961427306569
aI0
aI0
aI0
aI0
aI0
aI0
aI0
aI0
aI0
aF-5.588496319198405
aI0
aI0
aF3.742669628700074
aF-4.895349138638459
aI0
aF9.684735425120799
aI0
aI0
aF0.0
aI0
aI0
aI0
aF-5.300814246746624
aF-3.914519885626733
aI0
aF-4.741198458811201
aF11.728087050646273
aF7.262269465090749
aI0
aF-4.895349138638459
aF-4.289213335068144
aI0
aF-5.588496319198405
aI0
aF13.60662544749655
aI0
aF3.8538952638102986
aF-4.1221592504049775
aI0
aI0
aI0
aI0
aF-5.300814246746624
aI0
aI0
aF4.741198458811201
aI0
aF-5.588496319198405
aI0
aI0
aI0
aI0
aI0
aF-11.44114188766704
aI0
aI0
aI0
aI0
aI0
aI0
aF-5.300814246746624
aF4.90600420653851
aI0
aI0
aF-3.1035896694104044
aF-2.4386133658171554
aF-2.923157756972848
aI0
aF12.116816948134085
aF5.993961427306569
aI0
aF2.1707709929101613
aI0
aI0
aF-4.741198458811201
aI0
aF-1.6242539965819307
aI0
aF-4.1221592504049775
aF4.895349138638459
aI0
aI0
aI0
aI0
aI0
aI0
aI0
aI0
aI0
aF-10.927758510429275
aF-5.993961427306569
aI0
aF5.300814246746624
aF-5.077670695432414
aF11.426797298519125
aF-10.148658891029184
aF4.1221592504049775
aF-6.5718224524087185
aI0
aI0
aF5.588496319198405
aF11.68174404524607
aF-0.9050436697200142
aF-3.5516143919373646
aF10.601628493493248
aI0
aF-12.188549565869895
aF1.5872012286172028
aI0
aI0
aI0
aI0
aI0
aF5.993961427306569
aI0
aI0
aI0
aI0
aI0
aF-9.941419767139479
aF-11.118946803420034
aF-4.895349138638459
aI0
aF-9.462146786420412
aF-5.993961427306569
aI0
aF9.94993734867549
aI0
aI0
aF5.993961427306569
aF-8.578426670136288
aI0
aF5.993961427306569
aI0
aF-5.993961427306569
aI0
aF4.741198458811201
aF5.588496319198405
aI0
aF11.987922854613139
aF-8.65081405874681
aI0
aI0
aI0
aI0
aI0
aI0
aI0
aF11.987922854613139
aF-5.588496319198405
aI0
aI0
aI0
aI0
aI0
aF-4.844782005176833
aI0
aI0
aF4.741198458811201
aI0
aI0
aF-5.300814246746624
aF5.300814246746624
aF5.077670695432414
aI0
aI0
aI0
aI0
aF-4.1221592504049775
aF-3.742669628700074
aF9.215334132373357
aI0
aI0
aI0
aI0
aI0
aF-10.901997886784454
aF8.00817155212297
aI0
aI0
aI0
aI0
aI0
aI0
aI0
aI0
aF-4.442400978423862
aI0
aF5.588496319198405
aF-11.353229171054963
aF-10.064712293073931
aI0
aF5.300814246746624
aI0
aI0
aI0
aF-5.351611705615587
aF13.259617279337899
aI0
aF5.588496319198405
aF-5.077670695432414
aI0
aI0
aI0
aI0
aI0
aI0
aI0
aF-5.993961427306569
aF7.8573603729290955
aI0
aF-4.895349138638459
aF5.993961427306569
aI0
aF5.993961427306569
aF5.588496319198405
aI0
aF-4.202201958078514
aF-3.5960661545081987
aF3.2531214033813685
aI0
aF-7.726022382380759
aF5.993961427306569
aF-5.508013332154377
aF12.334869007848848
aI0
aI0
aI0
aF-5.716934422754839
aF0.0
aI0
aF5.077670695432414
aI0
aI0
aF5.300814246746624
aF-9.790698277276919
aI0
aI0
aI0
aF-4.741198458811201
aF-5.993961427306569
aF4.384523514872469
aI0
aI0
aI0
aI0
aI0
aI0
aF5.077670695432414
aI0
aF9.482396917622403
aI0
aI0
aI0
aF1.1177378363617576
aI0
aI0
aF-5.588496319198405
aI0
aF-5.631815193917247
aI0
aF-0.5121554154853178
aI0
aI0
aI0
aI0
aF-5.993961427306569
aI0
aF-9.790698277276919
aF-5.510565950284377
aI0
aF5.300814246746624
aI0
aF-5.825768298420595
aI0
aF5.588496319198405
aF-7.631921644424946
aI0
aF11.728087050646273
aF2.609571163960795
aI0
aF-4.895349138638459
aI0
aI0
aI0
aF5.300814246746624
aI0
aI0
aF-4.741198458811201
aF-8.59724382178325
aI0
aI0
aI0
aI0
aI0
aF13.236285692875631
aI0
aI0
aF4.6076670661866785
aI0
aI0
aI0
aI0
aI0
aI0
aF0.0
aF5.588496319198405
aI0
aI0
aF-5.300814246746624
aF4.489884030530295
aI0
aF4.741198458811201
aF-10.273439859667517
aI0
aI0
aF-5.077670695432414
aF5.077670695432414
aF-7.5934736999406995
aF3.509054777518569
aF-3.391271741862185
aF5.993961427306569
aI0
aF4.895349138638459
aF-5.588496319198405
aF-3.3549040976913105
aF-8.975058696551036
aF6.539264194159358
aI0
aF0.0
aI0
aI0
aI0
aI0
aI0
aI0
aF-4.895349138638459
aI0
aF8.35050086976372
aF0.0
aI0
aI0
aI0
aI0
aF5.993961427306569
aI0
aF-7.80145850207289
aI0
aF11.731537108074365
aI0
aI0
aF-5.119948445642846
aI0
aF-5.141292951421657
aF-5.077670695432414
aI0
aI0
aF5.993961427306569
aI0
aI0
aF-9.482396917622403
aI0
aI0
aF5.993961427306569
aI0
aF0.0
aF-3.5960661545081987
aI0
aI0
aI0
aF4.895349138638459
aI0
aF-4.6076670661866785
aI0
aI0
aI0
aI0
aI0
aF-3.914519885626733
aF-6.858024139690065
aF-7.80145850207289
aI0
aI0
aI0
aI0
aI0
aF3.7967368499703498
aI0
aI0
aF0.0
aI0
aF3.7878132055467786
aF-7.829039771253466
aF13.996811170113858
aF-5.993961427306569
aF-4.895349138638459
aF-5.993961427306569
aF5.588496319198405
aF-10.503053633626838
aF0.0
aI0
aI0
aF-10.027690836849722
aI0
aI0
aI0
aF10.152886476697617
aF0.0
aF-3.955156813108361
aI0
aF-7.958116813528609
aI0
aF-5.588496319198405
aI0
aF-3.7967368499703498
aF-5.300814246746624
aI0
aF-8.288546591942264
aI0
aF-4.6076670661866785
aF-9.669706727190702
aF-5.993961427306569
aF5.993961427306569
aF5.588496319198405
aI0
aI0
aI0
aF-6.639625555760081
aI0
aI0
aI0
aF-3.810243155363546
aF-5.993961427306569
aI0
aI0
aI0
aI0
aI0
aI0
aI0
aI0
aF-4.289213335068144
aI0
aI0
aF-3.8538952638102986
aF-5.588496319198405
aI0
aI0
aI0
aF4.289213335068144
aF0.0
aF0.0
aF7.80145850207289
aI0
aF12.885490820267151
aF4.6076670661866785
aI0
aI0
aI0
aI0
aF0.0
aI0
aI0
aF2.5942209009007944
aF5.993961427306569
aF1.6790157097683633
aI0
aI0
aI0
aI0
aF-4.1221592504049775
aI0
aI0
aI0
aF-0.3502328236555412
aF0.0
aI0
aI0
aI0
aF-10.148658891029184
aI0
aF-3.5960661545081987
aF-5.993961427306569
aI0
aF6.506242806762737
aI0
aF13.585938443138126
aF-1.7002914917887004
aI0
aI0
aI0
aI0
aI0
aF-8.00970371391255
aI0
aI0
aI0
aF-5.300814246746624
aI0
aF3.3198127778800406
aF4.6076670661866785
aI0
aF5.993961427306569
aF3.4290120698450326
aI0
aI0
aI0
aI0
aF5.300814246746624
aF-5.993961427306569
aI0
aI0
aI0
aF-5.993961427306569
aF-10.273439859667517
aF5.300814246746624
aI0
aI0
aI0
aF5.588496319198405
aI0
aI0
aF-4.384523514872469
aI0
aI0
aI0
aI0
aF-3.212960036199184
aI0
aF4.895349138638459
aI0
aF-11.728087050646273
aI0
aI0
aI0
aI0
aF21.472442322522987
aI0
aF-2.435417593598041
aI0
aF11.17699263839681
aF-7.423643627305102
aF-5.588496319198405
aI0
aI0
aI0
aF-3.9790584067643047
aF-3.6913763343125234
aF-5.588496319198405
aI0
aF5.588496319198405
aF5.993961427306569
aI0
aI0
aF-4.741198458811201
aI0
aF-4.440892098500626e-16
aF7.2476451386614515
aI0
aF-5.741922188246574
aF-5.300814246746624
aI0
aF-4.741198458811201
aF9.215334132373357
aI0
aI0
aI0
aF-8.404403916157028
aF-5.300814246746624
aI0
aI0
aF9.215334132373357
aI0
aI0
aF-4.489884030530295
aI0
aF4.489884030530295
aI0
aI0
aF8.769047029744938
aF-8.215059536211946
aI0
aI0
aI0
aI0
aI0
aF0.0
aF-3.742669628700074
aF2.2682680000699165
aF5.300814246746624
aI0
aF-5.077670695432414
aI0
aI0
aI0
aI0
aI0
aI0
aF-4.048051278251256
aI0
aI0
aF-6.310860368607592
aI0
aF4.1221592504049775
aF22.843097917857136
aF8.59724382178325
aF-7.80145850207289
aI0
aI0
aI0
aI0
aF0.0
aI0
aI0
aI0
aI0
aI0
aI0
aI0
aI0
aF-4.9539937140990356
aF5.588496319198405
aI0
aF-5.208443602480359
aF-9.395281639131301
aI0
aI0
aI0
aI0
aI0
aF-10.148658891029184
aI0
aI0
aI0
aI0
aI0
aI0
aI0
aF6.336890529600868
aI0
aI0
aF10.601628493493248
aF5.077670695432414
aF0.0
aI0
aI0
aI0
aI0
aI0
aI0
aF-2.244457351376198
aF-5.300814246746624
aF-5.993961427306569
aI0
aF-5.588496319198405
aI0
aF3.8538952638102986
aI0
aI0
aI0
aI0
aF9.669706727190702
aI0
aI0
aF5.433633388628786
aI0
aI0
aI0
aF5.993961427306569
aF4.202201958078514
aF-8.769047029744938
aF-10.148658891029184
aI0
aI0
aF-5.993961427306569
aI0
aF-5.993961427306569
aI0
aF8.592758212403865
aF4.671629678830323
aF5.077670695432414
aI0
aF4.384523514872469
aI0
aI0
aI0
aF6.4427454101335755
aF-5.993961427306569
aF4.489884030530295
aF-4.895349138638459
aF-6.336890529600868
aI0
aI0
aI0
aI0
aI0
aI0
aI0
aI0
aI0
aI0
aF-5.300814246746624
aF-5.993961427306569
aF6.709487256390236
aF4.741198458811201
aI0
aI0
aF10.148658891029184
aF9.462146786420412
aI0
aI0
aF9.215334132373357
aI0
aI0
aF-4.202201958078514
aI0
aI0
aI0
aI0
aI0
aF-4.741198458811201
aF9.790698277276919
aI0
aF5.993961427306569
aF10.155341390864828
aI0
aI0
aF10.148658891029184
aI0
aI0
aI0
aF-4.895349138638459
aF-3.4682327829983137
aI0
aI0
aF0.0
aF5.588496319198405
aI0
aF-6.78254348372437
aF-4.915069076134454
aI0
aI0
aF-10.927758510429275
aI0
aF-4.202201958078514
aF-8.65081405874681
aF7.80145850207289
aF5.588496319198405
aI0
aF-5.993961427306569
aI0
aI0
aI0
aF8.027546803011344
aF-6.979422312642286
aI0
aF-5.077670695432414
aI0
aI0
aI0
aI0
aF-2.558667098514432
aF11.728087050646273
aF-8.975058696551036
aF-5.993961427306569
aF6.782543483724369
aI0
aF5.993961427306569
aI0
aF5.588496319198405
aI0
aF9.482396917622403
aI0
aI0
aI0
aI0
aF5.588496319198405
aI0
aI0
aF5.993961427306569
aI0
aI0
aI0
aF-3.2531214033813685
aF-4.895349138638459
aF4.793298333436246
aI0
aF4.431893037339981
aI0
aI0
aF-5.077670695432414
aF-11.7435596568802
aI0
aI0
aI0
aF10.148658891029184
aF-12.12957942183868
aF-10.148658891029184
aF5.588496319198405
aI0
aI0
aI0
aF7.958116813528609
aI0
aF-5.588496319198405
aF-5.077670695432414
aI0
aF0.0
aF4.489884030530295
aI0
aI0
aF15.580369978494591
aF5.588496319198405
aF7.423643627305101
aF-6.0134058941448725
aF-3.393197453303805
aF-5.993961427306569
aF-4.489884030530295
aF0.5494617719855837
aI0
aF11.728087050646273
aI0
aI0
aI0
aI0
aI0
aI0
aI0
aF1.844989302445538
aI0
aI0
aF-8.288546591942264
aI0
aF-6.73713152269633
aF-3.914519885626733
aI0
aI0
aF-5.993961427306569
aF5.993961427306569
aF-13.249866419516966
aI0
aF5.300814246746624
aI0
aF3.742669628700074
aI0
aF-3.509054777518569
aI0
aI0
aF-8.975058696551036
aF5.993961427306569
aI0
aF-4.895349138638459
aI0
aI0
aF4.895349138638459
aF0.0
aI0
aF-5.993961427306569
aF-4.289213335068144
aI0
aF-10.148658891029184
aF3.2531214033813685
aF-10.601628493493248
aF5.993961427306569
aI0
aF-13.336079665907517
aF4.202201958078514
aI0
aF15.050643105618818
aI0
aF5.588496319198405
aI0
aF0.0
aI0
aF-5.993961427306569
aF4.6076670661866785
aI0
aI0
aF4.741198458811201
aF-7.967878610186826
aI0
aI0
aI0
aI0
aI0
aI0
aF10.148658891029184
aI0
aF13.249866419516966
aI0
aI0
aF5.993961427306569
aI0
aI0
aI0
aF-5.993961427306569
aF5.588496319198405
aI0
aI0
aI0
aI0
aI0
aI0
aF0.0
aF4.048051278251256
aI0
aI0
aI0
aI0
aI0
aF4.895349138638459
aI0
aI0
aI0
aI0
aF10.148658891029184
aI0
aF-4.1221592504049775
aI0
aF4.610163946385266
aI0
aI0
aI0
aF-5.993961427306569
aF-3.509054777518569
aI0
aI0
aI0
aI0
aI0
aI0
aI0
aI0
aI0
aF-8.975058696551036
aI0
aI0
aF-9.215334132373357
aF5.993961427306569
aF-9.790698277276919
aI0
aF5.077670695432414
aF-5.993961427306569
aI0
aF-5.993961427306569
aI0
aF8.027546803011344
aI0
aF-3.1121504568031977
aF0.0
aF5.300814246746624
aI0
aI0
aF-8.404403916157028
aF-5.993961427306569
aI0
aF4.741198458811201
aI0
aI0
aF5.993961427306569
aF3.0908693417670405
aI0
aI0
aI0
aI0
aF8.578426670136288
aI0
aI0
aF-11.36082499292494
aF7.423643627305102
aI0
aF-3.742669628700074
aF11.566052632041465
aI0
aF-5.300814246746624
aF-9.156660573264961
aI0
aF5.993961427306569
aI0
aF12.64930314635545
aI0
aF9.94993734867549
aI0
aI0
aF-5.300814246746624
aF6.202856810787599
aI0
aI0
aF5.993961427306569
aI0
aI0
aI0
aF-3.9790584067643047
aI0
aF10.273439859667517
aI0
aF5.300814246746624
aF10.148658891029184
aI0
aF-4.384523514872469
aF-8.47738456607439
aI0
aI0
aI0
aF-3.1607480832503523
aI0
aI0
aF-5.993961427306569
aF-4.6076670661866785
aF-7.5934736999406995
aF0.0
aF0.0
aI0
aI0
aF14.570344680572365
aF5.588496319198405
aF-3.0495224481401286
aI0
aI0
aI0
aI0
aI0
aI0
aI0
aI0
aI0
aF5.588496319198405
aF5.077670695432414
aI0
aI0
aI0
aI0
aI0
aI0
aI0
aF-12.768745261822545
aF-1.2462991463300854
aI0
aI0
aI0
aI0
aF0.0
aF-3.9790584067643047
aI0
aF-5.588496319198405
aF10.273439859667517
aI0
aI0
aI0
aF-9.462146786420412
aI0
aI0
aF8.288546591942264
aF7.958116813528609
aF-5.993961427306569
aF-5.300814246746624
aF-5.588496319198405
aI0
aF-5.993961427306569
aI0
aI0
aF3.4682327829983137
aI0
aI0
aI0
aF0.38213768835160344
aF-4.048051278251256
aF5.993961427306569
aI0
aI0
aF-4.1221592504049775
aI0
aI0
aI0
aI0
aI0
aI0
aF5.077670695432414
aF5.588496319198405
aF5.588496319198405
aI0
aI0
aF-11.728087050646273
aF5.993961427306569
aI0
aF0.0
aI0
aF5.993961427306569
aF15.902442740239872
aI0
aI0
aI0
aI0
aI0
aF-5.993961427306569
aF-10.148658891029184
aF5.993961427306569
aF-5.993961427306569
aI0
aI0
aF-5.993961427306569
aI0
aF-5.993961427306569
aI0
aF-10.155341390864828
aI0
aF-13.236285692875631
aI0
aI0
aI0
aI0
aI0
aI0
aF-4.489884030530295
aI0
aF-5.993961427306569
aF-12.265937491920491
aI0
aI0
aI0
aI0
aI0
aI0
aI0
aF5.300814246746624
aI0
aF-1.6265671361817784
aI0
aF-13.834494822877534
aI0
aF-13.707893217066394
aI0
aF5.993961427306569
aF8.086049276802862
aI0
aI0
aF-8.975058696551036
aI0
aI0
aF2.8584672113774197
aI0
aF-3.6425861701430913
aI0
aI0
aF11.7435596568802
aI0
aF5.993961427306569
aF4.6076670661866785
aF-5.300814246746624
aF-11.124353918169456
aI0
aI0
aI0
aI0
aI0
aF-7.930223737970428
aI0
aF-7.80145850207289
aF7.80145850207289
aI0
aF-3.742669628700074
aI0
aF9.790698277276919
aF-4.384523514872469
aF10.601628493493248
aF-8.975058696551036
aI0
aF-4.895349138638459
aF-5.588496319198405
aI0
aI0
aI0
aI0
aF5.993961427306569
aF11.17699263839681
aF2.9494389895831463
aI0
aI0
aI0
aF-7.485339257400148
aI0
aI0
aF0.0
aF5.588496319198405
aI0
aI0
aF-5.077670695432414
aF5.300814246746624
aI0
aI0
aI0
aI0
aI0
aI0
aI0
aF-4.289213335068144
aI0
aI0
aI0
aF-3.9790584067643056
aI0
aF5.741922188246573
aF20.222980415761285
aI0
aI0
aI0
aI0
aI0
aI0
aI0
aI0
aF9.759364210144106
aI0
aI0
aI0
aI0
aI0
aI0
aF-8.975058696551036
aF3.509054777518569
aI0
aF-5.993961427306569
aF-4.202201958078514
aF0.0
aI0
aI0
aF-7.958116813528609
aI0
aI0
aI0
aF-5.588496319198405
aI0
aF-13.249866419516966
aI0
aF7.485339257400148
aI0
aI0
aI0
aI0
aF-5.993961427306569
aI0
aI0
aI0
aI0
aF-5.993961427306569
aF-8.975058696551036
aF-5.588496319198405
aI0
aF-5.588496319198405
aI0
aF-12.64930314635545
aI0
aI0
aF0.0
aI0
aF5.588496319198405
aI0
aF-8.027546803011344
aI0
aI0
aI0
aI0
aI0
aF4.396944476268749
aI0
aF-10.601628493493248
aI0
aI0
aI0
aF4.6076670661866785
aI0
aI0
aI0
aI0
aI0
aI0
aI0
aI0
aI0
aF-8.975058696551036
aF5.993961427306569
aF-8.510883018469368
aF0.0
aI0
aI0
aF-5.993961427306569
aI0
aF-9.462146786420412
aF-10.148658891029184
aI0
aF4.048051278251256
aF5.588496319198405
aI0
aI0
aF11.101581563047263
aF4.048051278251256
aI0
aF11.987922854613139
aI0
aI0
aF5.077670695432414
aI0
aF5.620931644854471
aF-6.428434292855346
aI0
aI0
aI0
aF5.588496319198405
aF10.148658891029184
aF-5.588496319198405
aI0
aI0
aF-4.741198458811201
aI0
aI0
aF5.077670695432414
aF-7.894377614726621
aI0
aI0
aI0
aI0
aF0.0
aI0
aI0
aI0
aI0
aI0
aI0
aF7.2851723402861825
aI0
aF5.993961427306569
aF8.59724382178325
aI0
aF18.846483505538483
aF13.967144658497329
aI0
aI0
aI0
aI0
aF-10.995249937959102
aI0
aF4.489884030530295
aF-5.993961427306569
aF12.64930314635545
aF10.273439859667517
aF4.741198458811201
aI0
aI0
aI0
aF10.287036209535097
aI0
aI0
aI0
aF-2.9259084921729523
aF-5.588496319198405
aI0
aI0
aI0
aI0
aI0
aI0
aI0
aI0
aI0
aI0
aF-3.509054777518569
aF5.300814246746624
aF5.588496319198405
aF8.404403916157028
aI0
aI0
aI0
aF8.59724382178325
aI0
aF8.096102556502512
aF-4.895349138638459
aF-7.447247965426646
aI0
aF5.077670695432414
aI0
aI0
aF-5.433633388628786
aI0
aF0.0
aF-10.148658891029184
aI0
aI0
aF4.1221592504049775
aI0
aI0
aF10.601628493493248
aI0
aF0.0
aF-10.148658891029184
aI0
aF-8.510883018469368
aF9.42252580116558
aI0
aF5.300814246746624
aI0
aI0
aI0
aF4.202201958078514
aI0
aF5.077670695432414
aF5.077670695432414
aF-10.148658891029184
aI0
aI0
aI0
aF-4.289213335068144
aI0
aI0
aI0
aF5.0764432383488085
aF8.975058696551036
aI0
aI0
aI0
aI0
aI0
aF0.0
aI0
aF0.0
aF-5.993961427306569
aI0
aI0
aF3.2213727050667877
aI0
aF3.7074904895370584
aF5.077670695432414
aF-4.289213335068144
aI0
aI0
aI0
aI0
aF5.993961427306569
aI0
aF-8.818792668688763
aF3.509054777518569
aF-8.288546591942264
aF-4.384523514872469
aF-6.4427454101335755
aI0
aF0.0
aI0
aI0
aI0
aF5.993961427306569
aI0
aF-5.993961427306569
aI0
aI0
aI0
aF0.0
aI0
aI0
aI0
aI0
aI0
aI0
aF-5.588496319198405
aF-5.077670695432414
aI0
aI0
aF8.578426670136288
aF4.489884030530295
aI0
aI0
aI0
aI0
aI0
aI0
aF-3.6425861701430913
aI0
aF3.4290120698450326
aI0
aF-12.799530568472266
aI0
aI0
aI0
aF-9.759364210144106
aI0
aI0
aI0
aI0
aF-7.80145850207289
aI0
aF5.993961427306569
aF-10.52262529125609
aI0
aI0
aF-11.728087050646273
aF-5.993961427306569
aF-3.4290120698450326
aF-4.6076670661866785
aI0
aI0
aI0
aI0
aI0
aI0
aF0.0
aF12.409125568259569
aI0
aI0
aF-10.148658891029184
aI0
aI0
aI0
aI0
aI0
aI0
aI0
aF4.895349138638459
aF0.0
aI0
aI0
aI0
aI0
aI0
aI0
aF7.829039771253466
aI0
aI0
aF4.048051278251256
aI0
aF5.588496319198405
aF-10.165942302397664
aI0
aI0
aI0
aI0
aF11.728087050646273
aF-5.077670695432414
aI0
aI0
aF10.148658891029184
aI0
aF4.741198458811201
aI0
aI0
aI0
aI0
aF-2.7580731159320258
aI0
aF-2.4244287308251993
aI0
aF-8.096102556502512
aF4.6076670661866785
aF-3.4290120698450326
aI0
aF-8.975058696551036
aF-7.423643627305102
aI0
aI0
aF4.741198458811201
aI0
aI0
aI0
aI0
aI0
aI0
aF-3.840511569072725
aI0
aF5.300814246746624
aF7.114946397464117
aF0.0
aI0
aI0
aI0
aF-5.300814246746624
aI0
aF0.0
aI0
aI0
aF-5.993961427306569
aF-13.249866419516966
aI0
aI0
aF-6.250043432826955
aI0
aI0
aI0
aI0
aF6.336890529600868
aF5.993961427306569
aF-8.769047029744938
aI0
aF-10.148658891029184
aF2.7580731159320258
aI0
aI0
aI0
aI0
aI0
aF5.993961427306569
aI0
aI0
aF5.993961427306569
aI0
aI0
aF0.0
aF-7.423643627305102
aF4.489884030530295
aI0
aF11.728087050646273
aF-5.993961427306569
aI0
aI0
aI0
aI0
aI0
aF-1.5370878250997477
aF2.558667098514432
aI0
aF-2.3506504463843885
aI0
aI0
aI0
aF-10.601628493493248
aF-3.6425861701430913
aF0.0
aI0
aI0
aI0
aI0
aI0
aF-8.244318500809955
aF8.59724382178325
aI0
aI0
aI0
aI0
aF-11.124353918169456
aF-5.3541321011032394
aF10.155341390864828
aF0.0
aF0.0
aI0
aI0
aF7.958116813528609
aF2.061098469798556
aF5.300814246746624
aI0
aF3.9790584067643047
aI0
aI0
aF10.155341390864828
aF4.6076670661866785
aF-5.993961427306569
aI0
aI0
aI0
aI0
aI0
aI0
aI0
aI0
aF-8.769047029744938
aF-2.2328854080498086
aI0
aF-4.1221592504049775
aI0
aI0
aF5.588496319198405
aI0
aI0
aI0
aI0
aI0
aI0
aF-1.3225145028427612
aI0
aI0
aI0
aI0
aF5.993961427306569
aF-11.728087050646273
aF0.0
aI0
aF4.741198458811201
aI0
aI0
aI0
aI0
aI0
aF4.895349138638459
aF-7.602034487333492
aI0
aF-4.90600420653851
aF-5.993961427306569
aF-6.698656224149424
aF-5.993961427306569
aF-5.588496319198405
aI0
aI0
aF-4.895349138638459
aI0
aI0
aF-11.728087050646273
aF7.80145850207289
aI0
aF10.148658891029184
aI0
aI0
aI0
aI0
aI0
aI0
aI0
aF-2.7580731159320258
aI0
aI0
aF-3.4290120698450326
aF-5.993961427306569
aI0
aF-3.5519667061167524
aI0
aI0
aF5.993961427306569
aI0
aI0
aI0
aF-4.6076670661866785
aI0
aI0
aF-5.620931644854471
aI0
aI0
aF-5.300814246746624
aF4.489884030530295
aI0
aF-5.077670695432414
aF7.423643627305102
aI0
aI0
aF-3.5649579333704056
aI0
aF-11.728087050646273
aF0.0
aI0
aF-5.993961427306569
aF-6.167434503924425
aI0
aI0
aI0
aF5.993961427306569
aF0.0
aI0
aF5.034635010960763
aI0
aI0
aI0
aI0
aF7.5467486227143805
aF7.80145850207289
aI0
aI0
aI0
aI0
aI0
aI0
aF5.077670695432414
aF-2.8804461180961947
aF-9.842355237033916
aF-10.148658891029184
aF5.588496319198405
aF-11.728087050646273
aF0.0
aI0
aF-5.300814246746624
aF9.900401982807304
aF0.0
aI0
aF-5.993961427306569
aF-5.300814246746624
aF3.8538952638102986
aI0
aF-4.289213335068144
aI0
aF0.0
aI0
aF7.602034487333492
aI0
aI0
aF5.300814246746624
aF4.895349138638459
aF-12.64930314635545
aI0
aI0
aI0
aI0
aI0
aF0.0
aI0
aI0
aF-7.6403535350887655
aI0
aI-2
tp1
.