((lp0
F0.0
aF0.0
aF-0.04
aF-0.08
aF0.0
aF-0.09
aF-0.01
aF-0.04
aF0.060000000000000005
aF-0.02
aF-0.13
aF-0.06
aF-0.02
aF-0.03
aF-0.03
aF-0.08
aF0.05
aF0.0
aF0.0
aF0.0
aF0.0
aF-0.01
aF-0.04
aF0.0
aF-0.02
aF-0.02
aF0.0
aF0.0
aF0.0
aF0.0
aF0.0
aF-0.06000000000000001
aF0.0
aF0.02
aF0.08
aF0.0
aF0.02
aF-0.01
aF0.0
aF0.0
aF-0.05
aF-0.22000000000000003
aF0.0
aF-0.01
aF-0.09
aF0.18000000000000002
aF0.0
aF0.0
aF0.0
aF0.0
aF0.3400000000000002
aF0.07
aF-0.06
aF0.08
aF-0.02
aF0.2
aF0.0
aF0.0
aF0.08
aF-0.01
aF-0.04
aF0.01
aF-0.02
aF-0.21000000000000005
aF-0.04
aF-0.02
aF0.06
aF-0.02
aF0.01
aF0.0
aF0.0
aF-0.02
aF0.18000000000000002
aF-0.05
aF0.04
aF-0.04
aF0.04
aF-0.13
aF0.0
aF0.0
aF-0.02
aF-0.02
aF0.0
aF-0.09999999999999999
aF-0.02
aF0.0
aF-0.02
aF0.0
aF0.0
aF-0.03
aF0.060000000000000005
aF0.0
aF0.07
aF0.08
aF0.0
aF-0.01
aF-0.01
aF0.03
aF-0.06
aF-0.01
aF-0.01
aF-0.01
aF0.0
aF0.21
aF0.02
aF-0.01
aF-0.01
aF-0.5900000000000003
aF0.0
aF-0.01
aF-0.09
aF0.18
aF0.0
aF0.01
aF0.0
aF-0.009999999999999997
aF-0.07
aF-0.01
aF-0.02
aF0.04
aF-0.01
aF-0.13
aF0.0
aF-0.01
aF-0.01
aF-0.07
aF0.0
aF0.05
aF0.03
aF0.0
aF0.0
aF-0.01
aF0.26
aF-0.060000000000000005
aF-0.01
aF0.03
aF-0.02
aF-0.02
aF-0.07
aF-0.01
aF-0.02
aF-0.02
aF-0.04
aF0.08
aF0.0
aF0.02
aF-0.24000000000000005
aF0.0
aF-0.02
aF0.0
aF-0.02
aF0.029999999999999992
aF-0.02999999999999999
aF-0.03
aF-0.02
aF0.0
aF0.07
aF0.01
aF-0.060000000000000005
aF-0.05
aF-0.01
aF0.01
aF0.07999999999999997
aF0.060000000000000005
aF0.0
aF0.12000000000000001
aF0.0
aF0.0
aF0.0
aF0.0
aF-0.02
aF0.0
aF-0.02
aF0.09
aF-0.16
aF0.009999999999999997
aF-0.07
aF0.0
aF-0.04
aF0.0
aF-0.04
aF-0.03
aF-0.09999999999999999
aF0.18000000000000002
aF-0.08
aF0.0
aF0.0
aF0.01
aF0.0
aF-0.01
aF0.0
aF0.08
aF3.469446951953614e-18
aF-0.01
aF-0.060000000000000005
aF-0.02
aF-0.15
aF0.02
aF-0.01
aF0.15
aF0.02
aF0.0
aF-0.01
aF-0.02
aF0.01
aF-0.02
aF0.0
aF-0.02
aF-0.03
aF0.03
aF-0.12999999999999998
aF-0.03
aF0.01
aF-0.01
aF0.02
aF-0.060000000000000005
aF0.0
aF0.01
aF0.0
aF-0.12
aF-0.02
aF-0.21
aF-0.09
aF0.01
aF0.0
aF0.01
aF0.019999999999999997
aF0.0
aF0.0
aF-0.01
aF0.03
aF0.26
aF0.04
aF0.7600000000000003
aF0.0
aF0.16
aF-0.01
aF0.08
aF0.04
aF0.12
aF0.08
aF0.08
aF0.01
aF0.03
aF-0.02
aF-0.010000000000000005
aF0.09
aF-0.04
aF0.0
aF0.11999999999999998
aF0.03
aF0.0
aF0.0
aF-1.734723475976807e-18
aF0.02
aF0.30000000000000016
aF0.0
aF-0.01
aF-0.03
aF-0.02
aF-0.06
aF-0.22
aF-0.01
aF0.0
aF0.0
aF0.0
aF-0.03
aF0.0
aF0.02
aF-0.10999999999999999
aF-0.02
aF0.03
aF-0.01
aF-0.01
aF0.0
aF-0.02
aF-0.4900000000000001
aF-0.01
aF0.0
aF-0.04
aF0.0
aF0.0
aF0.0
aF0.0
aF-0.16
aF0.0
aF-0.09999999999999998
aF-0.05
aF-0.01
aF-0.20999999999999996
aF-0.02
aF-0.02
aF-0.04
aF0.01
aF-0.02
aF-0.06
aF-0.02
aF-0.04
aF0.0
aF-0.03
aF0.0
aF-0.01
aF-0.02
aF-0.02
aF0.1
aF-0.04
aF0.09
aF-0.02
aF0.03
aF0.01
aF-0.01
aF-0.02
aF0.0
aF-0.05
aF-0.08
aF-0.04
aF-0.060000000000000005
aF0.0
aF-0.019999999999999997
aF0.0
aF0.0
aF-0.03
aF-0.03
aF0.0
aF-0.03
aF0.0
aF0.05
aF0.08
aF0.0
aF0.08
aF-0.01
aF0.03
aF-0.07
aF-0.04
aF-0.01
aF-0.02
aF-0.02
aF-0.03
aF-0.09000000000000001
aF0.17000000000000004
aF0.01
aF-0.09
aF0.0
aF-0.01
aF-0.06
aF0.0
aF0.08
aF0.019999999999999997
aF-0.02
aF0.15
aF0.03
aF0.3100000000000001
aF0.3900000000000001
aF-0.01
aF0.05
aF0.0
aF0.10999999999999999
aF0.0
aF0.03
aF-0.01
aF0.04
aF-0.03
aF-0.060000000000000005
aF0.0
aF-0.02
aF-0.26
aF0.010000000000000004
aF0.06
aF-0.02
aF-0.01
aF-0.02
aF-0.03
aF-0.04
aF0.0
aF0.0
aF-0.06
aF-0.060000000000000005
aF-0.01
aF-0.03
aF0.0
aF-0.02
aF0.18000000000000002
aF-0.01
aF0.11999999999999998
aF-0.01
aF-0.04
aF0.9000000000000004
aF-0.019999999999999983
aF0.0
aF-0.03
aF-0.09
aF0.1
aF0.11
aF-0.04
aF-0.01
aF0.0
aF-0.02
aF0.0
aF0.0
aF0.0
aF0.0
aF0.15000000000000002
aF0.05
aF0.07
aF-0.01
aF-0.03
aF-0.09999999999999999
aF0.0
aF-0.02
aF0.0
aF0.0
aF0.0
aF0.0
aF0.0
aF-0.02
aF0.0
aF0.01
aF0.0
aF0.0
aF0.04
aF-0.03
aF-0.01
aF0.0
aF0.019999999999999997
aF-0.04
aF-0.02
aF-0.02
aF0.3
aF0.10999999999999999
aF-0.04
aF-0.02
aF-0.07
aF-0.01
aF-0.02
aF0.0
aF0.02
aF0.08
aF-0.02
aF0.0
aF0.0
aF0.0
aF-0.02
aF-0.01
aF0.03
aF0.01
aF0.0
aF0.01
aF-0.02
aF-0.03
aF-0.07
aF0.03
aF0.01
aF0.019999999999999997
aF0.0
aF-0.03
aF-0.03
aF-0.01
aF0.08
aF0.0
aF-0.01
aF0.02
aF0.060000000000000005
aF0.04
aF-0.01
aF-0.01
aF0.04
aF0.0
aF0.26
aF-0.03
aF-0.02
aF-0.02
aF-0.01
aF0.0
aF-0.06
aF-0.11999999999999998
aF0.08
aF0.0
aF-0.060000000000000005
aF0.0
aF0.02
aF-0.05
aF-0.02
aF0.0
aF0.0
aF0.02
aF0.0
aF-0.21000000000000005
aF-0.10999999999999999
aF-0.09999999999999999
aF-0.01
aF0.01
aF0.0
aF0.06
aF-0.02
aF-0.05
aF0.08
aF-0.04
aF-0.02
aF-0.09
aF-0.01
aF-0.13999999999999999
aF-0.02
aF-0.060000000000000005
aF0.12000000000000001
aF0.12000000000000001
aF-0.02
aF-0.03
aF0.0
aF0.03
aF-0.02
aF0.0
aF0.03
aF0.08
aF0.08
aF0.0
aF0.0
aF-0.01
aF0.0
aF0.0
aF-0.02
aF-0.21
aF0.23999999999999966
aF0.0
aF0.2900000000000001
aF0.01
aF0.0
aF0.0
aF-0.02
aF0.0
aF-0.40000000000000013
aF0.0
aF-0.03
aF-0.15
aF-0.02
aF0.16999999999999998
aF-0.02
aF0.0
aF-0.04
aF-0.02
aF0.4600000000000003
aF0.0
aF0.0
aF-0.02
aF0.0
aF-0.01
aF0.0
aF-0.02
aF0.0
aF0.0
aF0.0
aF-0.02
aF0.0
aF-0.13
aF-0.02
aF0.0
aF0.0
aF-0.05
aF-0.06999999999999999
aF0.0
aF0.9000000000000004
aF-0.01
aF-0.02
aF0.01
aF-0.01
aF0.01
aF-0.01
aF-0.04
aF0.08999999999999998
aF-0.05
aF0.05
aF-0.04
aF0.0
aF-0.09999999999999999
aF0.0
aF-0.02
aF-0.02
aF-0.01
aF0.09
aF-0.04
aF-0.060000000000000005
aF0.0
aF-0.01
aF0.0
aF-0.03
aF-0.02
aF-0.03
aF-0.01
aF0.17
aF0.0
aF0.01
aF-0.03
aF0.04
aF-0.03
aF-0.02
aF-0.01
aF-0.01
aF-0.02
aF-0.05
aF-0.02
aF-0.04
aF-0.02
aF-0.01
aF-0.02
aF0.0
aF-0.06
aF0.01
aF3.469446951953614e-18
aF-0.02
aF0.0
aF-0.04
aF0.0
aF0.0
aF-0.09
aF-0.05
aF0.0
aF0.009999999999999997
aF-0.02
aF0.0
aF-0.05
aF0.10999999999999999
aF-0.01
aF-0.04
aF0.0
aF-0.19000000000000003
aF3.469446951953614e-18
aF-0.01
aF0.0
aF-0.04
aF0.04
aF-0.01
aF-0.02
aF0.0
aF0.0
aF-0.01
aF-0.08
aF0.10999999999999999
aF0.01
aF0.0
aF-0.01
aF0.0
aF0.01
aF-0.12
aF-0.02
aF0.0
aF0.28000000000000014
aF0.020000000000000004
aF0.019999999999999997
aF-0.31999999999999984
aF0.11000000000000001
aF-0.02
aF0.0
aF-0.04
aF0.05
aF-0.03
aF0.02
aF0.0
aF0.02
aF-0.08
aF-0.02
aF0.0
aF0.0
aF-0.5400000000000001
aF0.049999999999999996
aF0.0
aF3.469446951953614e-18
aF0.0
aF0.0
aF0.0
aF-0.06
aF-0.02
aF0.0
aF-0.07
aF0.04
aF0.13
aF0.06
aF0.03
aF-0.01
aF0.0
aF0.03
aF-0.13999999999999999
aF-0.009999999999999997
aF-0.03
aF-0.02
aF0.08
aF0.0
aF0.0
aF-0.019999999999999997
aF-0.20000000000000004
aF-0.01
aF0.0
aF-0.02
aF0.0
aF-0.07
aF-0.02
aF0.01
aF-0.06
aF0.01
aF0.04
aF0.019999999999999997
aF-0.02
aF0.10999999999999999
aF-0.02
aF0.0
aF0.0
aF0.08
aF-0.020000000000000004
aF0.01
aF-0.02
aF-0.04
aF0.0
aF-0.03
aF0.0
aF0.03
aF0.05
aF-0.05
aF-0.02
aF-0.020000000000000004
aF0.0
aF-0.04
aF0.03
aF0.04
aF-0.06
aF-0.02
aF0.019999999999999997
aF-0.07999999999999999
aF0.03
aF0.1
aF-0.02
aF-0.19000000000000003
aF0.03
aF0.03
aF-0.03
aF-0.01
aF0.05
aF-0.060000000000000005
aF-0.01
aF0.0
aF-0.05
aF0.08
aF0.06
aF-0.05
aF-1.0299999999999994
aF-0.02
aF-0.03
aF-0.08
aF0.0
aF0.05
aF0.0
aF0.009999999999999997
aF0.08
aF-0.27999999999999997
aF-0.060000000000000005
aF-0.03
aF0.0
aF0.08000000000000002
aF0.0
aF-0.02
aF-0.03
aF-0.04
aF-0.060000000000000005
aF0.0
aF-0.019999999999999997
aF-0.060000000000000005
aF-0.05
aF-0.02
aF0.0
aF-0.02
aF0.0
aF-0.009999999999999998
aF-0.01
aF0.01
aF-0.02
aF0.0
aF0.22000000000000008
aF-0.01
aF0.0
aF-0.01
aF0.0
aF-0.01
aF-0.06
aF0.13
aF-0.02
aF-0.01
aF0.019999999999999997
aF0.0
aF0.03
aF-0.01
aF0.03
aF-0.08
aF0.0
aF0.0
aF-0.02
aF-0.08
aF0.08
aF-0.01
aF0.03
aF-0.06
aF-0.04
aF0.060000000000000005
aF-0.01
aF0.0
aF-0.01
aF-0.03
aF-0.03
aF-0.04
aF-0.01
aF0.02
aF0.0
aF0.09999999999999998
aF0.0
aF0.04
aF0.0
aF-0.03
aF0.0
aF-0.02
aF0.06
aF0.0
aF0.0
aF-0.04
aF-0.03
aF0.0
aF0.05
aF0.02
aF-0.01
aF0.01
aF-0.12000000000000001
aF-0.12000000000000001
aF-0.06999999999999999
aF-0.02
aF-0.03
aF0.06
aF1.9500000000000013
aF-0.05
aF-0.05
aF-0.12999999999999998
aF0.0
aF0.0
aF-0.02
aF0.0
aF-0.03
aF0.15
aF-0.06
aF-0.01
aF0.2700000000000001
aF0.03
aF0.0
aF0.0
aF0.08
aF0.0
aF-0.03
aF0.02
aF0.0
aF-0.03
aF0.08
aF-0.02
aF-0.02
aF0.0
aF0.04
aF-0.02
aF-0.01
aF0.05
aF-0.060000000000000005
aF0.0
aF0.12000000000000001
aF-0.16
aF-0.060000000000000005
aF0.0
aF-0.02
aF0.16999999999999998
aF-0.01
aF-0.03
aF0.0
aF-0.02
aF-0.01
aF0.02
aF0.02
aF0.0
aF-0.02
aF-0.02
aF0.0
aF-0.05
aF0.0
aF-0.05
aF0.0
aF0.0
aF0.06999999999999999
aF-0.06999999999999999
aF-0.02
aF0.0
aF-0.03
aF0.0
aF0.0
aF0.0
aF-0.18
aF0.0
aF-0.02
aF0.0
aF0.060000000000000005
aF-0.2
aF0.1
aF0.01
aF-0.05
aF-0.03
aF0.060000000000000005
aF0.3200000000000001
aF0.14
aF-0.01
aF-0.01
aF0.0
aF-1.0099999999999996
aF-0.02
aF0.0
aF-0.09
aF-0.01
aF-0.02
aF-0.03
aF-0.05
aF0.03
aF-0.029999999999999992
aF0.0
aF-0.01
aF-0.03
aF-0.12999999999999995
aF-0.04
aF-0.02
aF-0.01
aF-0.01
aF0.0
aF0.0
aF-0.1
aF-0.060000000000000005
aF-0.02
aF-0.02
aF-0.01
aF0.0
aF0.0
aF0.09000000000000001
aF-0.08
aF-0.07
aF0.03
aF0.0
aF0.0
aF-0.04
aF0.08
aF0.08
aF0.03
aF0.08
aF-0.04
aF-0.02
aF0.05
aF0.0
aF-0.03
aF0.0
aF0.03
aF0.0
aF0.0
aF0.0
aF0.3600000000000001
aF-0.01
aF0.01
aF-0.02
aF0.04
aF0.0
aF-0.07
aF-0.01
aF-0.03
aF0.05
aF0.0
aF-0.06
aF0.0
aF0.02
aF-0.01
aF-0.08
aF-0.05
aF0.02
aF-0.19000000000000003
aF-0.02
aF0.03
aF0.04
aF-0.07
aF-0.01
aF0.0
aF0.03
aF0.08
aF-0.08
aF0.0
aF0.03
aF0.08
aF-0.03
aF0.08
aF-0.08999999999999997
aF0.02
aF-0.060000000000000005
aF0.01
aF0.02
aF-0.02
aF-0.05
aF0.01
aF0.0
aF-0.08
aF-0.10999999999999999
aF0.05
aF-0.03
aF-0.04
aF-0.03
aF-0.04
aF-0.02
aF0.0
aF-0.20000000000000004
aF-0.02
aF0.0
aF0.02
aF0.0
aF0.03
aF0.05
aF0.01
aF-0.01
aF0.04
aF0.04
aF-0.01
aF0.04
aF0.07
aF-0.01
aF0.0
aF0.0
aF0.04
aF0.0
aF-0.02
aF0.04
aF0.0
aF0.0
aF-0.02
aF0.30000000000000004
aF0.01
aF-0.01
aF-0.02
aF0.0
aF-0.06999999999999999
aF0.0
aF0.0
aF0.06
aF0.02
aF0.0
aF0.1
aF0.13
aF-0.03
aF0.16
aF-0.02
aF0.05
aF-0.02
aF-0.05
aF0.03
aF0.02
aF0.08
aF0.09000000000000001
aF-0.01
aF-0.01
aF0.0
aF-0.06
aF0.4600000000000001
aF0.0
aF-0.04
aF-0.02
aF-0.02
aF-0.05
aF0.02
aF-0.05
aF-0.11000000000000003
aF0.15000000000000002
aF-0.01
aF0.019999999999999997
aF0.16999999999999998
aF0.01
aF0.03
aF0.22000000000000003
aF0.01
aF-0.04
aF0.01
aF-0.01
aF0.0
aF-0.01
aF0.03
aF-0.03
aF-0.04
aF0.0
aF0.03
aF-0.060000000000000005
aF0.07
aF-0.06
aF-0.01
aF0.0
aF0.0
aF-0.54
aF0.12
aF0.04
aF-0.14
aF0.05
aF0.01
aF0.0
aF0.019999999999999997
aF0.0
aF-0.08
aF0.0
aF0.02
aF0.0
aF0.0
aF0.0
aF-0.02
aF0.7900000000000001
aF0.0
aF0.0
aF-0.02
aF0.01
aF-0.05
aF0.03
aF0.02
aF-0.02
aF-0.02
aF-0.01
aF-0.02
aF-0.01
aF-0.35
aF0.0
aF0.0
aF0.0
aF-0.01
aF0.0
aF-0.019999999999999997
aF0.08
aF-0.01
aF-0.02
aF0.10000000000000002
aF-0.03
aF-0.03
aF0.29999999999999993
aF0.0
aF0.01
aF-0.07999999999999999
aF0.0
aF0.03
aF0.13000000000000003
aF-0.01
aF-0.02
aF-0.01
aF-0.019999999999999997
aF0.03
aF-0.12999999999999998
aF0.04
aF0.10999999999999999
aF0.3500000000000001
aF-0.07
aF-0.02
aF0.0
aF0.04
aF0.0
aF-0.07
aF-0.02
aF-0.06999999999999999
aF-0.02
aF-0.01
aF0.02
aF0.0
aF-0.06
aF-0.03
aF-0.060000000000000005
aF-0.03
aF-0.11
aF0.02
aF-0.019999999999999997
aF0.0
aF0.17000000000000004
aF0.0
aF0.02
aF-0.01
aF-0.01
aF-0.1
aF0.01
aF0.01
aF0.04
aF-0.04
aF0.06
aF-0.04
aF0.0
aF-0.07999999999999999
aF0.09999999999999999
aF0.02
aF0.01
aF-0.21000000000000005
aF-0.01
aF-0.01
aF0.09999999999999999
aF0.03
aF-0.02
aF-0.01
aF0.0
aF-0.03
aF-0.019999999999999997
aF0.0
aF0.0
aF0.01
aF0.0
aF0.01
aF-0.02
aF-0.04
aF0.0
aF0.02
aF0.08
aF-0.02
aF0.43000000000000027
aF1.7800000000000011
aF-0.02
aF0.0
aF0.06
aF-0.01
aF0.0
aF0.01
aF0.02
aF-0.02
aF-0.01
aF0.03
aF0.0
aF0.0
aF0.0
aF-0.01
aF-0.01
aF0.0
aF0.0
aF0.0
aF0.049999999999999996
aF0.0
aF0.01
aF0.07
aF0.0
aF-0.04
aF0.02
aF0.0
aF-3.469446951953614e-18
aF0.03
aF0.0
aF0.01
aF0.02
aF-0.01
aF0.05
aF0.09
aF-0.04
aF0.08
aF-0.03
aF0.7400000000000002
aF-0.01
aF-0.04
aF-0.02
aF0.03
aF-0.17
aF-0.04
aF0.05
aF0.02
aF0.009999999999999997
aF-0.04
aF-0.03
aF-0.03
aF0.0
aF0.0
aF0.01
aF-0.01
aF0.0
aF0.0
aF0.0
aF0.08000000000000002
aF-0.08
aF0.0
aF0.01
aF-0.01
aF-0.03
aF0.32000000000000006
aF0.03
aF-0.01
aF-0.01
aF-0.02
aF0.0
aF-0.03
aF0.02
aF0.03
aF0.0
aF-0.16000000000000006
aF-0.010000000000000004
aF0.02
aF-0.18
aF0.08
aF-0.03
aF0.0
aF0.03
aF-0.01
aF0.02
aF0.0
aF0.0
aF-0.01
aF0.0
aF0.0
aF0.03
aF0.0
aF-0.01
aF-0.03
aF-0.01
aF0.0
aF0.0
aF0.01
aF-0.01
aF0.01
aF0.08
aF0.01
aF0.03
aF-0.01
aF0.0
aF0.04
aF0.02
aF-0.01
aF0.0
aF-0.01
aF-0.03
aF0.04
aF-0.07
aF0.16
aF0.03
aF-0.05
aF-0.04
aF-0.01
aF0.09999999999999999
aF-0.04
aF0.01
aF-0.04
aF-0.01
aF0.0
aF-0.09999999999999999
aF0.0
aF0.0
aF0.0
aF-0.01
aF-0.02
aF-0.01
aF0.0
aF-0.10999999999999999
aF-0.02
aF0.0
aF-0.01
aF-0.04
aF-0.02
aF-0.03
aF-0.04
aF-0.03
aF-0.01
aF0.21000000000000008
aF0.0
aF0.08
aF0.0
aF-0.02
aF0.0
aF-0.01
aF0.0
aF0.0
aF-0.02
aF-0.02
aF0.02
aF-0.02
aF-0.02
aF0.03
aF-0.1
aF-0.01
aF0.049999999999999996
aF-0.02
aF0.09999999999999999
aF0.10999999999999999
aF0.0
aF0.03
aF-0.03
aF0.0
aF0.03
aF-0.02
aF-0.1
aF-0.01
aF0.07
aF0.09999999999999999
aF0.0
aF-0.02
aF0.0
aF-0.02
aF0.17
aF-0.02
aF0.0
aF0.03
aF0.0
aF-0.05
aF-0.04
aF-0.01
aF0.03
aF0.0
aF0.15
aF-0.02
aF0.0
aF-0.02
aF0.01
aF-0.05
aF0.0
aF0.0
aF0.24
aF0.0
aF0.04
aF-0.010000000000000004
aF0.0
aF0.0
aF0.0
aF0.0
aF-0.02
aF0.0
aF-0.02
aF-0.03
aF-0.04
aF0.11999999999999998
aF-0.04
aF-0.029999999999999992
aF-0.01
aF-0.02
aF-0.02
aF-0.03
aF0.0
aF0.21999999999999997
aF-0.1
aF0.16000000000000003
aF-0.02
aF0.22000000000000003
aF-0.02
aF-0.02
aF-0.02
aF-0.01
aF0.0
aF0.08
aF0.4100000000000002
aF0.0
aF-0.02
aF0.02
aF-0.019999999999999997
aF0.09
aF0.04
aF0.03
aF0.0
aF-0.04
aF-0.02
aF-0.06
aF0.0
aF-0.010000000000000002
aF-0.01
aF0.0
aF-0.14
aF-0.1
aF0.0
aF-0.02
aF0.05
aF-0.02
aF-0.02
aF-0.01
aF0.01
aF0.0
aF0.0
aF0.0
aF-0.01
aF-0.06999999999999999
aF-0.03
aF0.0
aF0.0
aF0.0
aF0.07
aF0.0
aF-0.02
aF-0.01
aF0.0
aF-0.04
aF-0.02
aF0.04
aF-0.12
aF-0.02
aF-0.07
aF-0.04
aF-0.03
aF-0.01
aF0.05
aF0.0
aF0.0
aF0.0
aF0.0
aF-0.06
aF0.09
aF-0.02
aF0.0
aF0.0
aF0.0
aF-0.06
aF0.0
aF-0.06
aF0.09
aF-0.09999999999999999
aF-0.04
aF-0.02
aF-0.03
aF0.0
aF0.0
aF0.01
aF-0.02
aF0.03
aF0.03
aF-0.03
aF-0.03
aF-0.01
aF0.10999999999999999
aF-0.01
aF0.0
aF0.03
aF0.16999999999999998
aF0.02
aF0.0
aF0.01
aF-0.02
aF-0.02
aF-0.060000000000000005
aF-0.02
aF0.01
aF-0.14
aF0.03
aF-0.04
aF0.0
aF0.03
aF0.04
aF-0.02
aF0.17
aF-0.02
aF0.0
aF0.019999999999999997
aF0.0
aF0.3500000000000001
aF-0.04
aF0.0
aF-0.020000000000000004
aF-0.02
aF0.060000000000000005
aF0.0
aF-0.01
aF0.10999999999999999
aF-0.060000000000000005
aF-0.02
aF0.0
aF0.0
aF-0.01
aF0.0
aF0.01
aF0.0
aF-0.060000000000000005
aF-0.07
aF0.01
aF0.0
aF-0.05
aF0.0
aF0.0
aF-0.05999999999999999
aF-0.01
aF0.05
aF0.12000000000000001
aF0.02
aF-0.01
aF0.02
aF0.0
aF-0.01
aF0.0
aF0.0
aF0.0
aF0.0
aF0.0
aF-0.14
aF0.03
aF-0.01
aF0.0
aF0.03
aF-0.02
aF-0.01
aF-0.02
aF-0.05
aF-0.09
aF-0.07
aF-0.06
aF0.01
aF-0.02
aF0.18
aF-0.02
aF-0.03
aF-0.13
aF-0.01
aF0.0
aF0.0
aF-0.08
aF-0.05999999999999999
aF0.12999999999999998
aF-0.01
aF-0.32
aF-0.01
aF-0.10999999999999999
aF-0.02
aF0.0
aF0.0
aF-0.02
aF0.13
aF0.0
aF-0.01
aF-0.02
aF-0.02
aF-0.02
aF-0.01
aF0.0
aF0.05
aF0.23000000000000007
aF0.0
aF-0.02
aF-0.09000000000000001
aF-0.01
aF-0.03
aF0.0
aF-0.01
aF0.0
aF0.02
aF0.0
aF-0.02
aF-0.01
aF0.0
aF-0.03
aF-0.01
aF-0.04
aF0.029999999999999992
aF-0.12999999999999998
aF0.0
aF-0.03
aF0.01
aF-0.05
aF0.08
aF0.02
aF0.35000000000000014
aF0.01
aF-0.02
aF0.07
aF-0.030000000000000006
aF-0.03
aF-0.01
aF0.030000000000000006
aF0.01
aF-0.03
aF0.0
aF0.30000000000000004
aF0.09000000000000001
aF-0.09000000000000001
aF0.0
aF-0.06
aF0.03
aF-0.01
aF-0.020000000000000004
aF0.02
aF-0.02
aF-0.03
aF0.0
aF-0.01
aF0.01
aF-0.01
aF0.0
aF0.0
aF-0.06
aF-0.02
aF-0.04
aF-0.02
aF-0.02
aF-0.26000000000000006
aF-0.01
aF0.0
aF-0.01
aF-0.07
aF0.01
aF0.0
aF-0.02
aF0.0
aF0.18999999999999997
aF-0.17000000000000004
aF0.08
aF-0.01
aF-0.09
aF-0.02
aF-0.02
aF0.1
aF-0.02
aF-0.10999999999999999
aF-0.04
aF-0.02
aF-0.02
aF0.04
aF0.0
aF-0.01
aF0.0
aF0.060000000000000005
aF0.0
aF0.03
aF-0.04
aF-0.03
aF0.060000000000000005
aF0.0
aF0.0
aF-0.02
aF-0.02
aF0.7300000000000003
aF-0.1
aF0.04
aF-0.019999999999999997
aF-0.01
aF0.02
aF0.0
aF-0.02
aF-0.03
aF0.0
aF-0.04
aF-0.05
aF0.0
aF-0.01
aF0.060000000000000005
aF0.0
aF-0.060000000000000005
aF0.08
aF0.02
aF-0.02
aF-0.30999999999999994
aF-0.03
aF0.07999999999999999
aF-0.05
aF0.0
aF0.21999999999999997
aF0.01
aF0.05
aF-0.01
aF0.010000000000000004
aF-0.01
aF0.12
aF-0.02
aF-0.02
aF-0.06
aF-0.02
aF0.0
aF0.0
aF-0.01
aF-0.16000000000000003
aF0.02
aF0.0
aF-0.03
aF-0.08
aF-0.02
aF0.0
aF0.08
aF0.11999999999999998
aF0.16
aF-0.11000000000000001
aF0.03
aF0.03
aF0.0
aF0.0
aF-0.03
aF0.0
aF0.02
aF0.0
aF-0.01
aF0.0
aF-0.02
aF-0.02
aF0.0
aF-0.01
aF-0.02
aF-0.09999999999999999
aF0.0
aF0.13999999999999999
aF-0.04
aF-0.02
aF-0.03
aF-0.03
aF0.01
aF-0.02
aF-0.03
aF0.0
aF-0.01
aF-0.03
aF0.02
aF-0.01
aF0.03
aF-0.02
aF0.01
aF0.0
aF0.02
aF0.05
aF-0.02
aF-0.02
aF-0.11999999999999998
aF0.02
aF0.04
aF0.0
aF0.04
aF0.10999999999999999
aF0.12
aF0.05
aF-0.03
aF0.0
aF-0.02
aF0.0
aF0.21
aF-0.02
aF0.01
aF-0.07
aF0.01
aF-0.01
aF0.0
aF0.0
aF0.02
aF0.12999999999999998
aF-0.01
aF-0.01
aF0.02
aF0.07
aF0.0
aF0.0
aF-0.03
aF0.0
aF-0.02
aF-0.03
aF-0.02
aF0.02
aF0.0
aF-0.04
aF-0.04
aF0.04
aF0.24
aF-0.01
aF0.05
aF0.0
aF-0.04
aF-0.01
aF0.0
aF0.0
aF0.0
aF-0.01
aF-0.21000000000000005
aF-0.01
aF-0.060000000000000005
aF-0.04
aF-0.04
aF0.0
aF-0.060000000000000005
aF0.0
aF-0.01
aF-0.01
aF0.0
aF-0.04
aF-0.03
aF-0.13999999999999999
aF0.07999999999999989
aF0.0
aF-0.03
aF0.18
aF0.07
aF0.0
aF0.0
aF0.0
aF0.0
aF0.0
aF-0.060000000000000005
aF-0.01
aF0.01
aF-0.01
aF-0.009999999999999997
aF-0.02
aF-0.08
aF-0.04
aF0.04
aF0.15999999999999998
aF-0.08
aF0.0
aF-0.03
aF-0.01
aF0.0
aF0.0
aF0.0
aF-0.01
aF-0.05
aF0.21000000000000002
aF0.03
aF0.01
aF-0.04
aF0.04
aF-0.01
aF-0.01
aF0.060000000000000005
aF0.0
aF-0.03
aF0.0
aF0.0
aF0.03
aF0.01
aF-0.05
aF0.0
aF-0.03
aF0.01
aF0.0
aF0.0
aF-0.02
aF-0.02
aF0.0
aF0.0
aF0.22
aF-0.08
aF-0.03
aF0.0
aF0.0
aF0.0
aF0.0
aF-0.01
aF-0.1
aF-0.01
aF0.03
aF-0.01
aF0.0
aF0.0
aF0.0
aF0.08
aF-0.02
aF0.0
aF0.04
aF0.0
aF0.12
aF0.10999999999999999
aF0.0
aF-0.01
aF0.0
aF-0.04
aF0.0
aF0.07999999999999999
aF-0.01
aF0.0
aF-0.02
aF-0.03
aF-0.1
aF0.0
aF0.02
aF0.0
aF0.22000000000000008
aF-0.04
aF0.03
aF-0.08
aF-0.16
aF-0.01
aF-0.18
aF-0.02
aF0.6200000000000003
aF0.0
aF0.0
aF-0.06
aF-0.09
aF-0.01
aF0.01
aF0.01
aF-0.02
aF0.0
aF0.0
aF0.0
aF-0.02
aF-0.02
aF-0.01
aF0.02
aF-0.07
aF-0.060000000000000005
aF-0.09
aF0.01
aF-0.04
aF0.03
aF-0.09
aF-0.04
aF-0.02
aF0.0
aF-0.02
aF0.0
aF0.10999999999999999
aF0.0
aF0.0
aF0.08
aF-0.13
aF0.12000000000000001
aF0.0
aF0.0
aF0.060000000000000005
aF0.0
aF0.0
aF0.010000000000000004
aF-0.01
aF-0.01
aF-0.03
aF0.0
aF0.01
aF0.009999999999999997
aF0.0
aF0.05000000000000001
aF0.0
aF3.469446951953614e-18
aF0.01
aF0.19
aF0.01
aF-0.01
aF-0.03
aF-0.04
aF0.04
aF-0.03
aF-0.01
aF0.08
aF-0.04
aF-0.02
aF0.04
aF0.0
aF0.0
aF-0.01
aF0.0
aF-0.01
aF0.04
aF-0.04
aF-0.01
aF-0.01
aF-0.12999999999999998
aF-0.01
aF0.08
aF0.0
aF0.0
aF0.08
aF-0.01
aF0.08
aF0.09
aF0.0
aF-0.02
aF0.0
aF-0.10999999999999999
aF-0.01
aF0.0
aF0.4700000000000002
aF-0.04
aF0.0
aF-0.01
aF0.0
aF0.04
aF0.06
aF-0.05
aF-1.1699999999999997
aF-0.03
aF-0.04
aF0.0
aF0.05
aF-0.16
aF-0.02
aF0.0
aF0.15
aF0.0
aF-0.04
aF-0.02
aF-0.01
aF-0.09999999999999999
aF-0.03
aF0.0
aF-0.06
aF0.0
aF0.02
aF0.02
aF-0.08
aF0.03
aF0.0
aF-0.03
aF0.0
aF0.02
aF0.5300000000000001
aF0.0
aF-0.05
aF-0.02
aF-0.05
aF0.02
aF0.11000000000000001
aF0.0
aF-3.469446951953614e-18
aF-0.08
aF0.0
aF0.0
aF0.09
aF0.05
aF-0.02
aF-0.03
aF-0.05
aF-0.02
aF-0.18
aF0.0
aF-0.13
aF0.0
aF0.06
aF0.03
aF-0.01
aF0.0
aF0.0
aF0.0
aF0.07
aF0.0
aF-0.05
aF-0.02
aF0.01
aF0.02
aF0.0
aF-0.38
aF-0.2
aF0.0
aF-0.060000000000000005
aF1.734723475976807e-18
aF-0.03
aF-0.02
aF0.01
aF-0.02
aF0.04
aF0.0
aF-0.01
aF0.0
aF0.09
aF0.0
aF0.05
aF0.0
aF0.01
aF0.32000000000000006
aF0.04
aF-0.01
aF0.02
aF-0.04
aF0.0
aF-0.19999999999999996
aF0.0
aF0.03
aF0.01
aF0.16999999999999998
aF0.0
aF-0.03
aF0.03
aF-0.04
aF0.0
aF0.08
aF-0.04
aF-0.13
aF0.0
aF-0.07
aF0.0
aF-0.07
aF-0.05
aF0.04
aF0.0
aF-0.18000000000000002
aF-0.07
aF0.20000000000000004
aF0.01
aF-0.02
aF0.0
aF-0.01
aF-0.06
aF0.0
aF-0.02
aF0.0
aF-0.04
aF0.0
aF0.1
aF-0.08
aF-0.02
aF0.0
aF0.02
aF-0.10999999999999999
aF0.18000000000000002
aF0.0
aF0.0
aF0.0
aF0.0
aF0.0
aF-0.01
aF-0.03
aF0.13999999999999999
aF0.15999999999999998
aF-0.04
aF-0.01
aF0.02
aF-0.04
aF0.06
aF0.04
aF0.0
aF-0.06
aF0.0
aF0.0
aF0.0
aF0.01
aF0.0
aF0.04
aF-0.08
aF-0.05
aF-0.03
aF-0.02
aF0.02
aF-0.01
aF-0.04
aF0.03
aF-0.01
aF-0.04
aF-0.02
aF0.0
aF-0.08
aF0.0
aF0.0
aF0.029999999999999992
aF0.01
aF-0.04
aF0.13
aF-0.01
aF0.12
aF0.0
aF0.0
aF0.0
aF0.0
aF0.12
aF0.04
aF-0.07
aF-0.060000000000000005
aF0.0
aF-0.01
aF0.0
aF0.05
aF0.0
aF-0.01
aF0.04
aF-0.03
aF-0.10999999999999999
aF0.009999999999999997
aF-0.08
aF0.24
aF-0.05
aF0.03
aF0.03000000000000001
aF0.15
aF-0.01
aF0.05
aF-0.02
aF-0.07
aF0.1
aF-0.02
aF-0.05
aF-0.01
aF0.02
aF-0.5200000000000001
aF-0.02
aF-0.09
aF0.0
aF0.04
aF0.02
aF-0.01
aF-0.09
aF0.08
aF0.0
aF0.0
aF-0.01
aF0.060000000000000005
aF0.0
aF-0.03
aF-0.17
aF-0.04
aF-0.02
aF-0.05
aF0.0
aF0.0
aF0.04
aF-0.01
aF0.09999999999999999
aF-0.01
aF-0.04
aF-0.01
aF0.10999999999999999
aF0.0
aF0.05
aF0.0
aF-0.02
aF-0.02
aF0.0
aF-0.15000000000000002
aF-0.03
aF-0.01
aF-0.03
aF0.01
aF0.08
aF-0.01
aF-0.03
aF-0.03
aF-0.01
aF-0.1
aF-0.01
aF0.06
aF0.0
aF-0.02
aF-0.04
aF-0.14
aF0.019999999999999997
aF0.0
aF0.08
aF0.0
aF0.0
aF0.13
aF0.04
aF-0.03
aF-0.01
aF-0.03
aF-0.05
aF-0.02
aF-0.04
aF-0.030000000000000006
aF0.01
aF-0.03
aF0.0
aF0.11999999999999998
aF-0.01
aF-0.02
aF-0.03
aF-0.01
aF0.0
aF0.08
aF0.08
aF0.26
aF-0.01
aF-0.02
aF-0.05
aF0.0
aF-0.01
aF0.0
aF0.0
aF0.15
aF0.0
aF-0.09
aF-0.05
aF-0.01
aF-0.01
aF-0.01
aF0.0
aF0.0
aF-0.02
aF-0.01
aF-0.01
aF0.0
aF-0.02
aF-0.02
aF-0.01
aF-0.019999999999999997
aF0.0
aF0.07
aF0.0
aF0.01
aF-0.03
aF0.0
aF-0.04
aF-0.06
aF0.0
aF0.08
aF0.0
aF-0.04
aF0.0
aF0.0
aF-0.01
aF-0.09
aF-0.019999999999999997
aF0.0
aF-0.04
aF0.05
aF0.0
aF-0.060000000000000005
aF0.0
aF0.11000000000000001
aF-0.02
aF-0.02
aF-0.02
aF-0.01
aF0.03
aF0.04
aF-0.01
aF-0.04
aF0.04
aF-0.06
aF0.03
aF-0.02
aF0.12
aF-0.08
aF-0.01
aF0.04000000000000001
aF-0.03
aF-0.02
aF0.32
aF0.0
aF0.0
aF-0.03
aF-0.02
aF0.04
aF0.020000000000000004
aF-0.09999999999999999
aF-0.03
aF-0.04000000000000001
aF0.03
aF0.0
aF0.02
aF0.0
aF0.0
aF-0.01
aF0.14
aF0.0
aF0.0
aF-0.06
aF-0.01
aF-0.08
aF-0.03
aF-0.02
aF0.0
aF0.14
aF0.02
aF0.07
aF-0.06999999999999999
aF0.12
aF0.02
aF0.0
aF-0.02
aF0.0
aF0.0
aF0.0
aF-0.31000000000000005
aF-0.07
aF0.02
aF0.04
aF0.12
aF0.0
aF-0.02
aF0.14
aF-0.01
aF-0.02
aF-0.02
aF-0.05
aF-0.03
aF-0.04
aF-0.02
aF0.03
aF-0.01
aF-0.02
aF-0.04
aF0.0
aF-0.01
aF0.0
aF-0.01
aF0.0
aF-0.02
aF-0.03
aF0.0
aF-0.04
aF-0.01
aF0.0
aF-0.05
aF0.09
aF-0.03
aF-0.04
aF-0.03
aF0.0
aF0.0
aF-0.03
aF-0.01
aF0.03
aF0.43000000000000005
aF0.0
aF-0.03
aF-0.02
aF-0.02
aF0.0
aF0.01
aF0.020000000000000014
aF-0.09000000000000001
aF-0.09
aF-0.05000000000000002
aF0.0
aF0.0
aF-0.060000000000000005
aF0.07
aF-0.01
aF-0.02
aF-0.11
aF0.0
aF-0.01
aF0.07
aF0.0
aF-0.12999999999999998
aF-0.01
aF-0.02
aF-0.01
aF0.0
aF-0.01
aF0.08
aF-0.03
aF0.0
aF-0.02
aF0.0
aF-0.02
aF0.0
aF0.02
aF0.04
aF0.05999999999999999
aF0.0
aF-0.07
aF0.0
aF-0.04
aF0.34000000000000014
aF0.05000000000000001
aF-0.03
aF0.07
aF-0.2
aF0.08
aF-0.04
aF-0.03
aF0.09
aF-0.08
aF0.09
aF0.0
aF-0.02
aF0.04
aF0.0
aF-0.02
aF-0.01
aF0.0
aF-0.029999999999999978
aF-0.01
aF-0.02
aF-0.03
aF0.12
aF0.04
aF-0.05
aF0.0
aF0.0
aF-0.01
aF-0.06
aF0.020000000000000004
aF0.0
aF0.01
aF-0.06
aF-0.11999999999999998
aF-0.02
aF0.0
aF-0.060000000000000005
aF-0.02
aF0.009999999999999997
aF0.0
aF0.0
aF-0.01
aF-0.01
aF0.0
aF-0.02
aF-0.01
aF0.0
aF0.0
aF-0.01
aF0.07
aF-0.01
aF-0.01
aF0.0
aF0.0
aF-0.07
aF0.5000000000000001
aF-0.01
aF-0.03
aF0.0
aF0.0
aF0.06
aF0.0
aF-0.03
aF0.03
aF0.04
aF-0.01
aF0.0
aF0.05
aF0.11999999999999998
aF0.12
aF-0.1
aF0.0
aF-0.01
aF-0.04
aF0.08999999999999997
aF0.16
aF0.5600000000000002
aF0.0
aF0.01
aF0.0
aF-0.03
aF-0.01
aF0.0
aF-0.03
aF0.0
aF-0.01
aF0.32000000000000006
aF-0.02
aF0.01
aF0.0
aF0.01
aF0.049999999999999996
aF-0.05
aF-0.03
aF0.0
aF0.0
aF-0.01
aF-0.06
aF0.03
aF0.0
aF0.05
aF0.0
aF-0.04
aF-0.04
aF-0.02
aF-0.05
aF-0.04
aF0.03
aF-0.03
aF0.0
aF0.060000000000000005
aF-0.02
aF0.0
aF-0.01
aF-0.04
aF-0.05000000000000001
aF-0.01
aF0.0
aF-0.08
aF0.0
aF-0.02
aF0.0
aF-0.41000000000000014
aF-0.03
aF-0.04
aF0.03
aF-0.01
aF0.0
aF0.05
aF-0.02
aF0.0
aF0.0
aF-0.02
aF-0.08
aF-0.03
aF-0.05
aF0.0
aF0.01
aF-0.05
aF-0.05
aF-0.4099999999999999
aF0.0
aF-0.01
aF0.020000000000000004
aF0.0
aF0.01
aF-0.11999999999999997
aF-0.02
aF0.03
aF0.0
aF-0.02
aF-0.02
aF0.02
aF0.0
aF-0.01
aF-0.05
aF0.12
aF0.0
aF-0.06
aF0.03
aF0.02
aF0.02
aF-0.01
aF-0.01
aF0.23000000000000004
aF0.06
aF-0.01
aF-0.5199999999999999
aF0.0
aF0.08
aF0.0
aF-0.01
aF-0.04
aF0.0
aF-0.01
aF-0.07999999999999999
aF-0.01
aF0.0
aF-0.07
aF-0.03
aF-0.02
aF0.0
aF-0.02
aF-0.01
aF0.0
aF0.0
aF-0.06
aF0.08
aF-0.04
aF-0.02
aF-0.05
aF0.02
aF-0.13
aF0.0
aF0.13
aF0.07
aF0.04
aF-0.03
aF-0.03
aF-0.05
aF-0.060000000000000005
aF-0.03
aF-0.01
aF-0.01
aF0.03
aF0.0
aF-0.3400000000000002
aF-0.04
aF-0.09000000000000001
aF0.02
aF-0.10999999999999999
aF0.0
aF0.08
aF-0.03
aF-0.01
aF0.049999999999999996
aF-0.04
aF0.02
aF0.1
aF-0.01
aF0.07
aF-0.02
aF0.0
aF0.0
aF0.01
aF-0.01
aF-0.02
aF-1.734723475976807e-18
aF0.0
aF-0.03
aF-0.02
aF0.0
aF-0.08
aF-0.03
aF-0.11
aF-0.01
aF-0.09000000000000001
aF-0.01
aF-0.09999999999999999
aF-0.02
aF-0.01
aF0.08
aF-0.02
aF-0.09
aF-0.02
aF-0.02
aF0.08
aF-0.02
aF-0.01
aF0.0
aF0.0
aF-0.01
aF-0.02
aF0.35000000000000014
aF0.07
aF-0.02
aF0.0
aF0.0
aF0.0
aF-0.03
aF-0.01
aF-0.04
aF0.12
aF-0.04
aF-0.06
aF-0.16
aF0.01
aF0.019999999999999997
aF0.27999999999999997
aF-0.04
aF0.01
aF-0.02
aF0.060000000000000005
aF-0.060000000000000005
aF-1.0500000000000007
aF0.03
aF-0.01
aF-0.060000000000000005
aF0.0
aF0.06
aF0.02
aF-0.03
aF-0.02
aF-0.09
aF0.0
aF-0.24000000000000005
aF-0.02
aF-0.02
aF0.05
aF0.0
aF-0.07
aF-0.02
aF0.07
aF0.0
aF-0.02
aF0.0
aF0.01
aF-0.03
aF0.0
aF0.0
aF-0.01
aF-0.07999999999999999
aF0.1
aF0.0
aF-0.03
aF-0.03
aF-0.01
aF-0.04
aF0.0
aF0.06999999999999998
aF3.469446951953614e-18
aF-0.04
aF0.0
aF-0.02
aF-0.01
aF0.0
aF0.0
aF0.0
aF0.0
aF-0.01
aF0.03
aF-0.16999999999999998
aF0.0
aF0.02
aF-0.09
aF-0.02
aF0.0
aF-0.03
aF-0.02
aF0.0
aF0.02
aF0.0
aF0.0
aF0.0
aF0.04000000000000001
aF-0.01
aF0.060000000000000005
aF0.0
aF-0.08
aF-0.02
aF0.0
aF-0.01
aF0.0
aF-0.05
aF0.12999999999999998
aF-0.02
aF-0.060000000000000005
aF-0.02
aF-0.04
aF-0.10999999999999999
aF0.03
aF-0.01
aF0.02
aF-0.01
aF0.0
aF-0.02
aF0.01
aF-0.01
aF0.02
aF0.0
aF-0.01
aF-0.3000000000000001
aF-0.01
aF0.03
aF-0.02
aF0.0
aF0.11999999999999998
aF0.0
aF0.0
aF0.0
aF0.02
aF-0.01
aF0.0
aF-0.01
aF0.0
aF-0.04
aF-0.01
aF0.0
aF0.0
aF-0.04
aF-0.02
aF0.0
aF-0.24000000000000005
aF0.08
aF-0.18000000000000005
aF0.01
aF0.0
aF0.0
aF0.0
aF0.11
aF-0.04
aF-0.01
aF-0.01
aF0.0
aF0.05000000000000002
aF0.12
aF0.08
aF-0.02
aF0.0
aF-0.06
aF0.019999999999999997
aF-0.15
aF-0.13
aF0.0
aF-0.06
aF0.0
aF-0.03
aF0.0
aF0.03
aF-0.01
aF-0.01
aF-0.04
aF-0.03
aF0.0
aF-0.01
aF-0.03
aF1.1102230246251565e-16
aF0.0
aF-0.01
aF-0.02
aF-0.08
aF0.0
aF0.0
aF0.0
aF0.0
aF0.01
aF0.0
aF0.0
aF-0.13
aF0.0
aF0.0
aF-0.05
aF0.0
aF-0.01
aF0.0
aF-0.01
aF-0.01
aF-0.02
aF-0.09999999999999999
aF-0.05
aF0.0
aF-0.04
aF0.01
aF-0.03
aF0.04
aF0.08
aF-0.01
aF-0.03
aF0.08
aF0.0
aF0.0
aF0.0
aF0.04
aF0.0
aF0.05000000000000001
aF-0.03
aF0.0
aF-0.03
aF0.0
aF0.0
aF0.18
aF0.04999999999999999
aF0.13
aF-0.01
aF0.0
aF-0.02
aF-0.03
aF-0.03
aF-0.02
aF0.0
aF-0.01
aF-0.02
aF0.0
aF-0.08
aF-0.02
aF0.0
aF-0.02
aF0.0
aF-0.01
aF0.08
aF0.16
aF0.0
aF-0.02
aF0.0
aF0.08
aF0.08
aF-0.01
aF0.02
aF0.0
aF-0.00999999999999999
aF0.0
aF0.0
aF0.03
aF0.16
aF0.02
aF0.08
aF-0.23000000000000007
aF-0.05
aF-0.02
aF0.16
aF0.0
aF0.0
aF-0.01
aF-0.03
aF-0.04
aF-0.30000000000000004
aF0.08
aF-0.01
aF-0.3000000000000001
aF-0.060000000000000005
aF0.0
aF0.14999999999999997
aF0.02
aF-0.02
aF-0.03
aF-0.01
aF0.0
aF0.0
aF0.01
aF0.03
aF0.05
aF0.08
aF-0.01
aF0.0
aF0.0
aF0.0
aF0.09000000000000001
aF0.0
aF0.0
aF0.0
aF-0.05
aF0.0
aF0.0
aF0.01
aF-0.02
aF-0.04
aF-0.08
aF0.04
aF0.0
aF-0.01
aF-0.05
aF-0.01
aF-0.05
aF0.05
aF0.02
aF-0.01
aF-0.10999999999999999
aF0.02
aF0.02
aF0.0
aF-0.01
aF0.0
aF-0.05
aF0.3500000000000001
aF0.060000000000000005
aF-0.060000000000000005
aF-0.01
aF-0.09999999999999999
aF-0.01
aF-0.07
aF0.01
aF0.01
aF-0.060000000000000005
aF-0.01
aF0.0
aF0.09
aF-0.08
aF0.03
aF0.0
aF-0.03
aF-0.01
aF-0.01
aF0.0
aF-0.01
aF-0.03
aF-0.03
aF-0.02
aF0.02
aF-0.029999999999999985
aF-0.01
aF-0.02
aF-0.02
aF-0.02
aF0.0
aF-0.01
aF0.12999999999999998
aF-0.02
aF-0.01
aF0.0
aF0.010000000000000002
aF0.02
aF0.12
aF0.0
aF-0.06
aF-0.01
aF-0.13
aF-0.06
aF0.009999999999999997
aF-0.03
aF-0.02
aF0.03
aF0.07
aF0.06
aF-0.03
aF-0.02
aF0.04
aF0.0
aF-0.009999999999999998
aF-0.03
aF0.03
aF-0.1
aF0.0
aF0.09
aF-0.19
aF0.0
aF0.02
aF-0.32
aF0.13
aF-0.31000000000000005
aF0.0
aF-0.02
aF0.02
aF-0.01
aF0.1
aF0.0
aF0.0
aF-0.02
aF0.15
aF-0.04
aF-0.03
aF-0.01
aF0.0
aF0.03
aF-0.03
aF0.0
aF0.03
aF-0.01
aF0.04
aF0.03
aF0.0
aF-0.02
aF-0.03
aF-0.03
aF-0.01
aF-0.01
aF-0.02
aF0.0
aF-0.02
aF-0.01
aF-0.01
aF0.04
aF0.0
aF-0.10999999999999999
aF0.0
aF0.1
aF0.0
aF0.0
aF0.02
aF0.0
aF0.0
aF-0.02
aF0.01
aF0.12
aF0.02
aF-0.01
aF0.12
aF0.0
aF-0.03
aF-0.04
aF-0.02
aF-0.02
aF0.04
aF-0.16999999999999998
aF-0.06
aF-0.02
aF-0.01
aF-0.03
aF-0.03
aF-0.01
aF0.0
aF-0.02
aF-0.01
aF0.009999999999999995
aF-0.02
aF0.0
aF-0.22
aF0.0
aF-0.06
aF-0.01
aF-0.01
aF-0.11999999999999997
aF0.0
aF0.03
aF0.0
aF-0.01
aF0.03
aF-0.01
aF-0.01
aF0.0
aF0.09
aF0.0
aF0.0
aF0.0
aF-0.01
aF-0.01
aF0.0
aF0.0
aF-0.01
aF-0.01
aF0.04
aF0.0
aF0.02
aF0.01
aF0.03
aF-0.02
aF0.11999999999999998
aF0.0
aF0.0
aF0.01
aF0.0
aF0.060000000000000005
aF0.0
aF-0.04
aF-0.02
aF0.08
aF-0.02
aF0.0
aF-0.03
aF0.01
aF-0.01
aF0.21000000000000002
aF0.09
aF-0.02
aF-0.04
aF-0.02
aF-0.060000000000000005
aF-0.01
aF-0.08000000000000002
aF-0.02
aF-0.01
aF0.01
aF-0.02
aF0.060000000000000005
aF-0.03
aF0.0
aF0.12
aF-0.02
aF-0.12000000000000001
aF0.0
aF-0.04
aF0.06
aF0.0
aF0.0
aF-0.07
aF0.02
aF-0.12
aF-0.02
aF-0.04
aF0.02
aF-0.02
aF0.019999999999999997
aF0.0
aF0.0
aF-0.03
aF-0.060000000000000005
aF-0.03
aF-0.05
aF0.01
aF0.04
aF0.010000000000000004
aF-0.06
aF-0.01
aF-0.04
aF0.02
aF0.01
aF0.03
aF-0.01
aF0.0
aF0.0
aF0.01
aF-0.01
aF-0.01
aF0.01
aF0.07
aF-0.01
aF-0.02
aF-0.02
aF0.0
aF0.0
aF0.01
aF-0.07
aF-0.15000000000000002
aF0.05
aF-0.05
aF-0.009999999999999992
aF3.469446951953614e-18
aF-0.07
aF0.30000000000000004
aF0.08
aF-0.07
aF0.0
aF-0.03
aF-0.16
aF-0.05
aF0.0
aF-0.060000000000000005
aF0.0
aF0.04
aF0.0
aF-0.02
aF0.04
aF0.01
aF-0.03
aF0.08
aF0.08
aF0.11
aF0.08
aF-0.01
aF0.02
aF-0.08
aF-0.01
aF-0.19
aF-0.06
aF-0.02
aF0.0
aF0.0
aF-0.01
aF-0.01
aF-0.06
aF0.0
aF0.06
aF0.0
aF-0.02
aF-0.06
aF0.0
aF0.15
aF0.07
aF-0.02
aF-0.04
aF0.0
aF0.0
aF-0.06
aF-0.02
aF0.0
aF-0.03
aF-1.734723475976807e-18
aF-0.15000000000000002
aF0.0
aF-0.05
aF-0.02
aF-0.01
aF-0.38000000000000017
aF0.0
aF-0.08
aF0.0
aF0.01
aF-0.07
aF0.0
aF-0.02
aF-0.060000000000000005
aF0.01
aF-0.01
aF0.02
aF0.059999999999999984
aF-0.02
aF-0.07999999999999997
aF0.0
aF-0.01
aF-0.06999999999999999
aF-0.14
aF-0.01
aF-0.030000000000000006
aF0.08
aF0.0
aF-0.02
aF0.0
aF0.0
aF0.01
aF0.05
aF-0.09000000000000001
aF0.0
aF0.03
aF0.0
aF0.0
aF0.0
aF0.0
aF0.0
aF0.0
aF-0.01
aF0.04
aF-0.03
aF-0.01
aF0.019999999999999997
aF0.15
aF0.0
aF0.0
aF0.0
aF-0.03
aF-0.04
aF-0.01
aF0.08
aF-0.10999999999999999
aF-0.02
aF0.07
aF0.03
aF0.0
aF-0.01
aF0.08
aF-0.37
aF-0.03
aF0.1
aF-0.01
aF0.02
aF-0.03
aF-0.04
aF0.0
aF0.0
aF-6.938893903907228e-18
aF0.0
aF0.0
aF0.0
aF-0.01
aF0.0
aF-0.07
aF0.07
aF0.08
aF0.08
aF0.08
aF0.0
aF-0.01
aF0.04
aF0.0
aF-0.01
aF-0.04
aF-0.01
aF-0.060000000000000005
aF-0.04
aF-0.02
aF-0.02
aF0.02
aF-0.17
aF-0.01
aF-0.16999999999999998
aF-0.11999999999999998
aF-0.02
aF0.0
aF0.28
aF-0.01
aF-0.01
aF-0.060000000000000005
aF0.0
aF0.0
aF-0.01
aF0.019999999999999997
aF0.0
aF0.0
aF0.09000000000000001
aF-0.03
aF-0.04
aF0.019999999999999997
aF0.0
aF0.0
aF-0.15
aF-0.02
aF-0.07
aF0.0
aF0.03
aF0.03
aF0.0
aF-0.03
aF0.03
aF0.03
aF0.01
aF-0.05
aF0.0
aF0.17
aF0.0
aF0.0
aF-0.01
aF-0.23000000000000004
aF-0.02
aF-0.02
aF-0.01
aF0.02
aF-0.01
aF-0.01
aF0.0
aF0.0
aF0.0
aF-0.04
aF-0.01
aF-0.09
aF-0.01
aF0.16000000000000006
aF0.01
aF-0.01
aF-0.02
aF-0.02
aF0.01
aF0.0
aF-0.04
aF0.02
aF-0.02
aF-0.01
aF-0.02
aF0.19000000000000003
aF-0.04
aF0.3400000000000001
aF-0.03
aF0.0
aF-0.01
aF-0.02
aF0.04
aF0.0
aF-0.05
aF0.0
aF0.01
aF0.08
aF0.0
aF0.0
aF0.08
aF-0.060000000000000005
aF-0.01
aF0.04
aF0.0
aF0.0
aF-0.02
aF-0.02
aF-0.01
aF-0.01
aF0.0
aF-0.04
aF-0.02
aF-0.01
aF0.04
aF0.03
aF-0.01
aF0.01
aF-0.08
aF0.03
aF-0.02
aF-0.029999999999999992
aF-0.01
aF-0.27999999999999986
aF-0.02
aF-0.01
aF0.0
aF-0.16000000000000003
aF0.0
aF-0.06
aF-0.03
aF0.0
aF0.0
aF0.0
aF0.0
aF-0.02
aF-0.01
aF0.0
aF-0.06
aF-0.03
aF0.0
aF-0.060000000000000005
aF-0.060000000000000005
aF-0.03
aF-0.1
aF0.0
aF0.0
aF-0.01
aF0.0
aF-0.18000000000000002
aF0.04
aF-3.469446951953614e-18
aF-0.02
aF-0.01
aF0.6900000000000001
aF0.04
aF0.03
aF-0.01
aF0.24000000000000002
aF0.06
aF-0.01
aF0.0
aF-0.01
aF-0.01
aF0.04
aF0.29000000000000004
aF0.01
aF-0.01
aF-0.23
aF0.0
aF-0.07
aF0.0
aF0.0
aF0.03
aF-0.04
aF-0.01
aF-0.01
aF-0.02
aF-0.01
aF-0.01
aF0.0
aF0.08
aF-0.01
aF0.0
aF-0.02
aF0.0
aF-0.05
aF0.0
aF-0.02
aF-0.01
aF0.16
aF0.019999999999999997
aF-0.08
aF-0.04
aF-0.02
aF-0.01
aF-0.01
aF0.0
aF0.14999999999999997
aF-0.01
aF-0.02
aF-0.019999999999999997
aF-0.08
aF0.0
aF-0.04
aF-0.3500000000000002
aF0.0
aF-0.05
aF0.0
aF-0.03
aF-0.05000000000000001
aF0.0
aF0.02
aF-0.02
aF-0.03
aF0.08
aF-0.06
aF-0.05
aF0.04
aF-0.04
aF0.11
aF-0.03
aF-0.02
aF0.25
aF0.0
aF-0.01
aF-0.01
aF0.0
aF0.0
aF-0.01
aF-0.02
aF0.06
aF0.0
aF0.01
aF0.0
aF-0.09999999999999999
aF0.12
aF0.18
aF0.02
aF0.04
aF0.0
aF0.0
aF0.04
aF0.04
aF-0.03
aF-0.02
aF0.07
aF0.0
aF0.09000000000000001
aF0.0
aF0.04
aF0.0
aF-0.01
aF0.0
aF0.08
aF-0.07
aF-0.01
aF-0.02
aF0.0
aF-0.03
aF-0.02
aF0.0
aF0.03
aF0.0
aF0.0
aF0.01
aF0.03
aF0.0
aF-0.01
aF-0.04
aF0.0
aF-0.02
aF-0.01
aF0.02
aF-0.02
aF-0.16000000000000003
aF0.0
aF0.0
aF0.02
aF-0.01
aF-0.05
aF-0.060000000000000005
aF0.01
aF0.019999999999999997
aF-0.04
aF0.0
aF0.04
aF0.020000000000000004
aF-0.02
aF0.0
aF-0.02
aF0.0
aF0.01
aF-0.01
aF0.0
aF0.04
aF-0.04
aF0.0
aF-0.01
aF0.01
aF-0.03
aF-0.03
aF-0.01
aF-0.03
aF-0.01
aF0.0
aF0.12999999999999998
aF-0.04
aF-0.02
aF0.01
aF0.09
aF-0.04
aF-0.02
aF-0.08
aF0.0
aF-0.03
aF0.04
aF-0.02
aF-0.02
aF0.0
aF0.03
aF-0.02
aF-0.04
aF-0.060000000000000005
aF0.0
aF-0.05
aF-0.01
aF0.0
aF-0.01
aF-0.02
aF-0.02
aF-0.02
aF-0.04
aF0.0
aF0.1
aF0.0
aF-0.060000000000000005
aF0.0
aF-0.01
aF-0.060000000000000005
aF0.09
aF-0.06
aF0.17
aF-0.02
aF-0.02
aF0.0
aF-0.08
aF-0.01
aF-0.09
aF0.0
aF-0.02
aF-0.02
aF0.03
aF0.0
aF0.0
aF0.13999999999999999
aF-0.02
aF-0.64
aF0.0
aF-0.01
aF0.01
aF0.07
aF0.04
aF0.04
aF0.0
aF-0.02
aF0.0
aF0.26000000000000006
aF-0.06
aF0.060000000000000005
aF-0.060000000000000005
aF-0.25
aF0.08
aF-0.10999999999999997
aF0.24999999999999997
aF0.03
aF0.0
aF0.08
aF-0.05
aF0.22999999999999998
aF0.0
aF0.24000000000000007
aF0.0
aF-0.01
aF-0.01
aF-0.08
aF-0.01
aF-0.06
aF-0.03
aF0.0
aF0.0
aF0.0
aF0.12000000000000001
aF0.0
aF-0.03
aF0.0
aF-0.02
aF0.13
aF-0.09
aF-0.03
aF0.5800000000000002
aF0.02
aF-0.04
aF0.04
aF0.04
aF-0.02
aF0.0
aF0.0
aF0.12000000000000001
aF-0.02
aF0.16000000000000003
aF-0.01
aF0.0
aF-0.03
aF0.08
aF0.4300000000000001
aF-0.02
aF-0.01
aF-0.02
aF0.0
aF0.0
aF-0.04
aF0.09
aF0.08
aF0.0
aF0.0
aF-0.03
aF0.0
aF-0.03
aF0.04
aF-0.02
aF-0.01
aF0.0
aF-0.02
aF-0.01
aF0.1
aF-0.02
aF0.04
aF-0.02
aF-0.01
aF-0.02
aF0.02
aF0.0
aF-0.05
aF0.0
aF0.0
aF0.0
aF0.1
aF0.0
aF0.01
aF-0.02
aF-0.02
aF-0.03
aF0.0
aF0.0
aF-0.02
aF0.21999999999999992
aF-0.03
aF0.16999999999999998
aF0.14
aF0.0
aF0.0
aF0.04
aF-0.01
aF-0.01
aF-0.060000000000000005
aF-0.03
aF-0.03
aF0.0
aF0.0
aF0.04
aF0.0
aF0.0
aF-0.05
aF0.0
aF0.0
aF-0.05
aF-0.01
aF0.0
aF-0.01
aF-0.01
aF-0.02
aF0.07
aF-0.04
aF-0.01
aF-0.02
aF0.04
aF0.01
aF-0.18000000000000002
aF-0.07000000000000003
aF-0.09000000000000001
aF0.01
aF-0.09
aF0.01
aF0.02
aF0.02
aF-0.05
aF-0.03
aF0.0
aF-0.05
aF0.02
aF0.03
aF0.019999999999999997
aF0.0
aF0.060000000000000005
aF-0.01
aF0.05
aF0.03
aF0.0
aF0.15
aF0.02
aF0.38
aF0.0
aF0.060000000000000005
aF0.13
aF0.05
aF-0.02
aF0.3400000000000001
aF-0.05
aF-0.02
aF-0.01
aF0.01
aF-0.03
aF-0.01
aF-0.25000000000000006
aF-0.02
aF0.03
aF0.020000000000000004
aF0.0
aF0.05
aF0.0
aF-0.02
aF1.0408340855860843e-17
aF-0.15000000000000002
aF-0.029999999999999985
aF-0.15000000000000002
aF-0.05000000000000001
aF-0.14
aF-0.06
aF0.08
aF0.01
aF0.24000000000000005
aF-0.05
aF0.01
aF0.0
aF-0.05
aF-0.05
aF0.0
aF-0.01
aF0.15
aF-0.01
aF-0.05
aF-0.06999999999999999
aF-0.019999999999999997
aF-0.02
aF0.02
aF-0.06
aF-0.02
aF0.03
aF0.23000000000000004
aF0.0
aF-0.05
aF0.0
aF0.0
aF0.02
aF-0.03
aF0.0
aF0.0
aF-0.01
aF0.0
aF-0.02
aF0.0
aF-0.02
aF0.0
aF-0.04
aF0.0
aF0.0
aF0.0
aF0.01
aF-0.08
aF0.0
aF-0.02
aF-0.09000000000000001
aF-0.01
aF-0.02
aF-0.12
aF-0.03
aF-0.02
aF0.25000000000000006
aF-0.01
aF-0.01
aF0.0
aF-0.04
aF-0.02
aF-0.03
aF-0.02
aF0.06
aF-0.01
aF0.09
aF-0.01
aF-0.04
aF0.04
aF-0.02
aF-0.01
aF-0.09999999999999999
aF-1.1800000000000004
aF-0.01
aF0.04
aF0.0
aF-0.02
aF-0.01
aF0.07
aF0.01
aF-0.02
aF0.01
aF-0.01
aF-0.02
aF0.0
aF0.06
aF0.0
aF-0.04
aF0.0
aF0.02
aF-0.039999999999999994
aF0.0
aF0.06
aF-0.05
aF-0.03
aF0.08
aF-0.02
aF0.01
aF0.009999999999999995
aF0.0
aF-0.03
aF0.0
aF0.03
aF0.0
aF-0.05
aF-0.01
aF-0.02
aF0.02
aF0.0
aF0.07
aF-0.02
aF0.0
aF0.0
aF0.08
aF-0.15
aF0.08
aF-0.09
aF0.060000000000000005
aF0.0
aF0.0
aF-0.02
aF-0.02
aF-0.01
aF-0.02
aF0.0
aF0.0
aF-0.019999999999999997
aF0.08000000000000002
aF0.19999999999999998
aF-0.01
aF0.19
aF-0.02
aF0.16999999999999996
aF0.02
aF-0.02
aF-0.05
aF-0.04
aF-0.07
aF0.12
aF0.02
aF-0.04
aF0.02
aF0.0
aF0.0
aF-0.02
aF-0.02
aF0.02
aF0.0
aF-0.01
aF0.0
aF-0.02
aF0.05
aF-0.01
aF0.0
aF-0.3500000000000001
aF0.0
aF-0.15000000000000002
aF0.0
aF0.0
aF-0.02
aF0.01
aF-0.02
aF-0.04
aF-0.02
aF0.04
aF-0.07
aF0.04
aF0.0
aF0.08
aF0.02
aF0.0
aF-0.01
aF0.0
aF-0.01
aF-0.02
aF0.14
aF0.0
aF0.12000000000000001
aF-0.04
aF0.02
aF0.0
aF0.0
aF-0.04
aF-0.01
aF0.04
aF-0.02
aF-0.01
aF-0.02
aF-0.05
aF-0.04
aF-0.03
aF0.02
aF0.07
aF0.0
aF-0.01
aF-0.13
aF-0.02
aF0.01
aF-0.060000000000000005
aF0.15
aF0.02
aF-0.07999999999999999
aF0.02
aF0.0
aF0.01
aF0.0
aF-0.01
aF0.01
aF-0.05
aF0.0
aF0.03
aF-0.02
aF0.0
aF-0.02
aF-0.09
aF0.0
aF0.08
aF0.0
aF-0.04
aF0.0
aF-0.02
aF-0.04
aF0.0
aF-0.01
aF0.08
aF0.0
aF0.02
aF0.019999999999999997
aF0.0
aF-0.12999999999999998
aF0.0
aF0.0
aF0.04
aF0.03
aF0.0
aF0.03
aF0.12
aF-0.03
aF0.0
aF0.0
aF0.03
aF0.02
aF0.0
aF0.0
aF-0.06
aF-0.03
aF-0.06
aF3.469446951953614e-18
aF-0.03
aF-0.02
aF-0.05
aF0.0
aF0.0
aF-0.03
aF-0.01
aF0.15
aF-0.23
aF-0.14999999999999997
aF0.0
aF0.02
aF-0.05
aF-0.02
aF-0.01
aF0.0
aF-0.02
aF-0.05
aF0.03
aF-0.059999999999999984
aF-0.01
aF0.0
aF0.03
aF0.05
aF-0.02
aF0.16
aF-0.01
aF-0.02
aF0.0
aF-0.01
aF0.01
aF0.0
aF-0.02
aF0.01
aF0.0
aF-0.1299999999999999
aF0.11999999999999998
aF0.0
aF-0.01
aF0.0
aF-0.10999999999999999
aF0.0
aF-0.02
aF-0.16
aF0.08
aF-0.01
aF-0.02
aF0.04
aF-0.04
aF-0.02
aF-0.03
aF0.05
aF0.13
aF-0.02
aF-0.02
aF0.060000000000000005
aF0.0
aF0.0
aF-0.05
aF-0.02
aF-0.04
aF0.0
aF0.0
aF-0.04
aF0.09999999999999999
aF-0.02
aF0.6300000000000004
aF-0.03
aF0.04
aF-0.01
aF0.0
aF0.0
aF0.02
aF-0.010000000000000004
aF-0.01
aF-0.02
aF-0.05
aF0.0
aF0.0
aF0.0
aF-0.04
aF0.08
aF0.18999999999999997
aF-0.08
aF0.04
aF0.08
aF0.01
aF3.469446951953614e-18
aF0.04
aF-0.11
aF0.0
aF-0.09
aF0.0
aF0.02
aF0.03
aF0.0
aF0.04
aF-0.02
aF0.0
aF0.019999999999999997
aF0.01
aF-0.01
aF0.0
aF-0.02
aF0.08
aF0.0
aF0.08
aF0.05
aF-0.01
aF0.08
aF0.049999999999999996
aF0.13999999999999999
aF0.04
aF-0.01
aF-0.04
aF3.469446951953614e-18
aF-0.02
aF0.02
aF0.060000000000000005
aF-0.04
aF0.0
aF0.24000000000000007
aF0.02
aF-0.01
aF0.0
aF0.11999999999999998
aF-0.02
aF0.03
aF0.04000000000000001
aF0.0
aF-0.01
aF0.14
aF0.0
aF0.0
aF-0.01
aF-0.01
aF-0.01
aF-0.060000000000000005
aF-0.19000000000000003
aF0.09
aF-0.009999999999999997
aF-0.04000000000000001
aF0.3300000000000001
aF-0.01
aF0.01
aF-0.06
aF0.0
aF0.0
aF-0.08
aF0.0
aF-0.019999999999999997
aF-0.04
aF0.0
aF0.0
aF-0.02
aF-0.03
aF-0.02
aF-0.02
aF-0.03
aF0.12
aF-0.04
aF0.0
aF0.0
aF0.0
aF0.0
aF0.0
aF0.0
aF0.04
aF-0.03
aF0.07999999999999999
aF0.0
aF0.04
aF0.03
aF0.0
aF0.0
aF-0.01
aF-0.04
aF0.03
aF0.02
aF0.0
aF-0.02
aF0.03
aF0.07000000000000005
aF-0.05
aF0.09
aF0.11000000000000001
aF-0.04
aF-0.25
aF0.0
aF-0.02
aF0.0
aF-0.01
aF-0.01
aF-0.060000000000000005
aF0.06
aF0.0
aF0.12000000000000001
aF0.0
aF-0.04
aF0.0
aF0.01
aF-0.08
aF-0.36
aF0.0
aF-0.02
aF-0.02
aF0.08
aF-0.09
aF0.01
aF-0.01
aF0.04
aF0.0
aF0.09
aF0.0
aF-0.03
aF0.01
aF0.0
aF-0.01
aF-0.04
aF0.02
aF0.0
aF-0.02
aF-0.05
aF-0.02
aF0.0
aF0.02
aF0.02
aF0.0
aF-0.01
aF-0.019999999999999997
aF0.04
aF-0.04
aF0.0
aF0.0
aF-0.02
aF0.07
aF-0.02
aF0.0
aF0.02000000000000001
aF-0.02
aF-0.02
aF-0.01
aF0.0
aF-0.01
aF0.02
aF0.08000000000000002
aF-0.02
aF0.01
aF0.019999999999999997
aF-0.02
aF-0.01
aF0.0
aF-0.03
aF-0.11
aF-0.02
aF0.0
aF-0.02
aF0.03
aF-0.04
aF-0.01
aF-0.02
aF-0.02
aF-0.02
aF0.0
aF-0.01
aF0.01
aF-0.02
aF-0.01
aF0.01
aF-0.01
aF-0.01
aF-0.01
aF0.01
aF-0.08
aF0.07
aF-0.03
aF0.0
aF0.0
aF0.04
aF0.0
aF0.0
aF-0.01
aF0.0
aF0.0
aF0.7800000000000004
aF-0.03
aF-0.02
aF-0.05
aF-0.25
aF0.0
aF-0.02
aF0.05
aF0.0
aF-0.06
aF-0.04
aF-0.16999999999999968
aF0.01
aF0.0
aF0.21999999999999997
aF0.0
aF-0.01
aF-0.22
aF-0.02
aF0.0
aF0.01
aF-0.02
aF-0.009999999999999997
aF-0.02
aF-0.02
aF0.07
aF0.03
aF0.0
aF-0.03
aF-0.03
aF-0.05
aF-0.01
aF0.07
aF-0.01
aF-0.010000000000000004
aF-0.01
aF0.019999999999999997
aF-0.10999999999999999
aF-0.02
aF-0.03
aF-0.01
aF-0.01
aF0.0
aF-0.02
aF0.08
aF0.0
aF0.03
aF-0.13
aF0.02
aF0.0
aF-0.04
aF0.0
aF0.0
aF0.14
aF0.0
aF0.02
aF0.02
aF0.02
aF0.0
aF0.02
aF0.04
aF-0.03
aF-0.22000000000000006
aF0.03
aF0.0
aF0.0
aF-0.04
aF0.03
aF-0.02
aF0.0
aF-0.019999999999999997
aF0.0
aF-0.03
aF-0.02
aF-0.02
aF0.0
aF-0.01
aF0.0
aF0.0
aF-0.01
aF-0.04
aF-0.02
aF-0.02
aF-0.02
aF-0.060000000000000005
aF0.0
aF0.0
aF0.0
aF0.0
aF-0.01
aF0.0
aF0.08
aF-0.04
aF0.01
aF-0.03
aF0.0
aF0.0
aF-0.02
aF0.15
aF-0.03
aF-0.02
aF-0.01
aF-0.019999999999999997
aF-0.01
aF-0.07
aF0.0
aF-0.04
aF0.0
aF0.0
aF-0.01
aF0.0
aF-0.06
aF0.04
aF0.05
aF0.04
aF0.0
aF0.0
aF-0.04
aF0.060000000000000005
aF0.18999999999999997
aF0.0
aF0.0
aF0.03
aF0.0
aF-0.03
aF0.0
aF-0.06
aF-0.02
aF-0.17999999999999997
aF-0.09
aF0.0
aF0.01
aF0.08
aF0.0
aF-0.30000000000000004
aF0.0
aF-0.05
aF0.0
aF-0.06
aF0.02
aF0.01
aF0.0
aF-0.18000000000000002
aF-0.07999999999999999
aF-0.01
aF0.060000000000000005
aF0.0
aF0.0
aF0.0
aF0.08
aF-0.060000000000000005
aF0.03
aF0.0
aF0.0
aF0.02
aF0.0
aF0.0
aF-0.03
aF-0.03
aF-0.019999999999999997
aF-0.04
aF-0.03
aF-0.01
aF-0.03
aF-0.07
aF-0.01
aF0.03
aF0.0
aF-0.01
aF0.0
aF-0.13999999999999999
aF0.0
aF0.0
aF0.0
aF-0.02
aF1.0700000000000003
aF0.0
aF-0.01
aF0.0
aF0.0
aF-0.01
aF0.17
aF-0.01
aF-0.01
aF-0.14
aF-0.01
aF0.0
aF0.0
aF-0.04
aF0.0
aF-0.01
aF-0.03
aF0.04
aF0.0
aF0.019999999999999997
aF-0.04
aF0.0
aF0.01
aF-0.01
aF0.03
aF0.0
aF-0.03
aF0.0
aF0.0
aF0.0
aF0.02
aF0.0
aF-0.01
aF0.07
aF-0.05
aF0.0
aF-0.02
aF0.060000000000000005
aF0.0
aF-0.05
aF0.0
aF0.21000000000000005
aF-0.05
aF-0.05
aF0.0
aF-0.02
aF-0.03
aF-0.02
aF0.0
aF0.0
aF-0.02
aF0.0
aF0.02
aF-0.02
aF-0.06
aF-0.02
aF0.04000000000000001
aF0.0
aF0.0
aF0.04
aF0.04
aF0.04999999999999999
aF-0.06
aF0.02
aF0.13
aF0.0
aF-0.03
aF0.02
aF-0.05
aF0.01
aF-0.02
aF0.05
aF0.02
aF0.0
aF0.0
aF0.0
aF0.0
aF-0.02
aF-0.09999999999999999
aF0.0
aF-0.04
aF0.0
aF-0.02
aF-0.04
aF-0.02
aF-0.02
aF0.0
aF0.07
aF0.0
aF-0.02
aF-0.01
aF-0.05
aF0.0
aF-0.060000000000000005
aF0.08
aF0.0
aF-0.02
aF0.08
aF-0.03
aF0.01
aF-0.01
aF-0.02
aF0.17
aF-0.06
aF-0.03
aF0.01
aF-0.01
aF-0.13999999999999999
aF-0.03
aF-0.06
aF-0.08
aF0.0
aF0.0
aF-0.01
aF-0.02
aF-0.010000000000000004
aF-0.01
aF-0.02
aF0.04
aF-0.01
aF0.28
aF0.019999999999999997
aF-0.01
aF0.0
aF0.04999999999999993
aF0.09000000000000001
aF0.05
aF0.0
aF-0.01
aF0.15999999999999998
aF-0.02
aF0.02
aF0.22999999999999998
aF-0.05
aF0.0
aF0.0
aF0.08
aF0.02
aF0.01
aF0.15000000000000002
aF0.17
aF0.02
aF0.08
aF-0.3500000000000001
aF0.11
aF0.0
aF-0.01
aF-0.03
aF-0.04
aF-0.02
aF0.09
aF0.0
aF-0.060000000000000005
aF-0.08
aF-0.04
aF-0.15000000000000002
aF0.0
aF0.0
aF0.0
aF-0.02
aF-0.01
aF-0.01
aF-0.05
aF0.0
aF0.0
aF0.01
aF0.03
aF0.0
aF-0.03
aF-0.01
aF0.02
aF-0.03
aF-0.01
aF-0.09999999999999998
aF0.0
aF-0.02
aF-0.01
aF-0.05
aF0.06
aF0.0
aF0.0
aF-0.08
aF-0.03
aF0.0
aF0.02
aF-0.01
aF-0.14000000000000082
aF0.4600000000000002
aF0.0
aF-0.01
aF-0.02
aF0.0
aF0.02
aF0.01
aF0.0
aF0.02
aF0.03
aF0.0
aF0.0
aF-0.01
aF0.01
aF-0.04
aF-0.03
aF-0.03
aF0.01
aF-0.01
aF-0.05
aF-0.01
aF-0.03
aF0.02
aF-0.03
aF0.0
aF-0.01
aF-0.01
aF0.07
aF-0.04
aF-0.01
aF0.0
aF-0.03
aF-0.02
aF-0.16
aF-0.03
aF-0.05
aF0.03
aF-0.04
aF-0.02
aF-0.02
aF-0.11
aF0.13999999999999999
aF0.13999999999999999
aF0.09000000000000001
aF0.060000000000000005
aF0.04
aF-0.01
aF0.03
aF0.07
aF0.02
aF0.0
aF-0.02
aF0.010000000000000004
aF-0.01
aF-0.04
aF0.0
aF-0.1
aF-0.02
aF-0.12999999999999998
aF0.4
aF-0.04
aF-0.01
aF0.0
aF0.18000000000000002
aF-0.01
aF-0.05
aF-0.01
aF-0.08
aF-0.14
aF-0.05
aF0.0
aF-0.060000000000000005
aF-0.01
aF-0.05
aF-0.01
aF-0.01
aF0.0
aF-0.04
aF0.0
aF-0.03
aF0.0
aF0.08
aF0.0
aF0.03
aF0.0
aF0.0
aF-0.04
aF-0.060000000000000005
aF-0.039999999999999994
aF0.0
aF-0.08
aF0.0
aF0.03
aF-0.01
aF0.08
aF0.0
aF0.08
aF0.0
aF0.0
aF-0.01
aF0.08
aF-0.14
aF-0.01
aF-0.04
aF0.0
aF-0.07
aF-0.01
aF-0.01
aF0.02
aF0.0
aF0.0
aF-0.01
aF-0.02
aF0.0
aF0.09
aF-0.02
aF-0.01
aF0.0
aF-0.01
aF0.0
aF-0.02
aF0.010000000000000002
aF0.0
aF0.0
aF-0.1
aF0.1
aF0.02
aF0.04
aF-0.02
aF0.03
aF-0.01
aF-0.02
aF0.0
aF-0.01
aF-0.02
aF-0.02
aF0.0
aF0.10999999999999999
aF0.0
aF-0.7900000000000004
aF-0.01
aF-0.02
aF-0.02
aF-0.02
aF0.02
aF0.03
aF0.02
aF0.01
aF-0.01
aF-0.01
aF0.01
aF-0.04
aF-0.2300000000000001
aF0.0
aF0.03
aF-0.01
aF0.0
aF0.04000000000000001
aF0.0
aF-0.04
aF-0.02
aF0.0
aF0.0
aF-0.05
aF0.04
aF-0.16999999999999998
aF-0.01
aF0.0
aF0.0
aF0.0
aF-0.01
aF0.01
aF-0.02
aF0.04
aF-0.35000000000000003
aF-0.01
aF-0.019999999999999997
aF0.0
aF0.03
aF0.0
aF-0.01
aF-0.05000000000000001
aF0.0
aF0.09
aF0.08
aF0.0
aF-0.12
aF0.01
aF0.08
aF0.0
aF0.0
aF-0.01
aF-0.03
aF-0.02
aF-0.03
aF0.1
aF-0.01
aF0.13
aF-0.06
aF-0.05
aF0.0
aF-0.02
aF0.02
aF0.0
aF0.0
aF-0.03
aF-0.02
aF-0.01
aF0.0
aF-0.01
aF-0.04
aF-0.1
aF-0.01
aF-0.039999999999999994
aF0.0
aF0.0
aF0.0
aF-0.01
aF0.0
aF0.02
aF-0.05
aF-0.02
aF0.03
aF0.0
aF-0.03
aF-0.05999999999999999
aF0.01
aF-0.05
aF0.04999999999999997
aF0.0
aF-0.04
aF0.0
aF-0.02
aF-0.30000000000000004
aF-0.02
aF0.4700000000000002
aF0.0
aF0.02
aF0.0
aF0.0
aF-0.02
aF0.05
aF-0.04
aF-0.02
aF-0.06999999999999999
aF-0.02
aF0.08
aF-0.04
aF0.01
aF-0.09
aF0.02
aF-0.01
aF-0.01
aF-0.09
aF0.0
aF0.0
aF0.04
aF-0.09
aF-0.01
aF0.0
aF-0.02
aF-0.01
aF0.0
aF0.0
aF-0.05
aF-0.04
aF0.0
aF0.0
aF0.0
aF-0.04
aF0.0
aF-0.06
aF0.09
aF-0.06
aF0.0
aF-0.03
aF0.02
aF-0.06
aF0.02
aF-0.02
aF-0.03
aF0.44
aF-0.04
aF0.0
aF-0.02
aF0.03
aF0.020000000000000004
aF-0.010000000000000002
aF-0.02
aF-0.01
aF-0.02
aF0.0
aF0.02
aF-0.04
aF0.0
aF0.0
aF-0.02
aF-0.08
aF-0.02
aF0.0
aF0.060000000000000005
aF-0.04
aF-0.02
aF-0.01
aF0.0
aF0.0
aF-0.01
aF-0.03
aF-0.02
aF0.02
aF0.08
aF0.060000000000000005
aF0.08
aF0.0
aF0.19000000000000003
aF-0.05
aF0.0
aF-0.18
aF0.0
aF0.0
aF-0.02
aF0.0
aF-0.01
aF0.0
aF-0.05
aF-0.01
aF-0.05
aF-0.03
aF0.0
aF-0.01
aF-0.09
aF-0.02
aF-0.09
aF0.01
aF-0.04
aF0.0
aF-0.02
aF0.0
aF-0.05
aF0.04
aF3.469446951953614e-18
aF-0.01
aF0.03
aF0.0
aF0.0
aF0.11
aF0.08
aF-0.04
aF0.060000000000000005
aF-0.02
aF0.04
aF-0.06
aF0.08
aF-0.07
aF-0.02
aF-0.03
aF0.0
aF0.0
aF0.0
aF-0.02
aF0.04
aF0.0
aF0.0
aF0.02
aF0.01
aF0.0
aF0.01
aF-0.06
aF-0.02
aF-0.02
aF-0.03
aF-0.01
aF0.01
aF0.3200000000000001
aF-0.06999999999999999
aF0.12
aF-0.20000000000000004
aF0.0
aF0.01
aF-0.04
aF-0.03
aF0.0
aF-0.01
aF0.0
aF0.0
aF0.06
aF0.09000000000000007
aF0.0
aF-0.01
aF-0.04
aF-0.01
aF-0.03
aF-0.03
aF0.08
aF-0.060000000000000005
aF0.0
aF0.07
aF-0.01
aF0.13000000000000003
aF-0.05
aF-0.02
aF-0.02
aF0.07
aF0.03
aF-0.04
aF-0.02
aF-0.010000000000000004
aF0.03
aF-0.01
aF-0.02
aF-0.03
aF0.049999999999999996
aF0.1
aF0.2
aF0.04
aF0.0
aF-0.04
aF0.0
aF-0.02
aF0.05
aF0.0
aF0.09000000000000001
aF-0.03
aF0.07
aF-0.04
aF0.0
aF0.19
aF0.01
aF-0.01
aF0.0
aF-0.02
aF0.0
aF0.0
aF0.16000000000000003
aF-0.03
aF-0.019999999999999997
aF-0.01
aF0.0
aF0.04
aF0.08
aF-0.04
aF0.0
aF0.17000000000000004
aF-0.04
aF0.0
aF-0.05
aF-0.01
aF0.01
aF0.0
aF0.0
aF0.0
aF-0.1
aF-0.01
aF-0.02
aF-0.01
aF0.02
aF0.09000000000000001
aF0.0
aF0.4500000000000002
aF0.060000000000000005
aF-0.01
aF0.0
aF-0.01
aF-0.04
aF-0.01
aF-0.01
aF-0.03
aF0.02
aF0.05
aF0.0
aF-0.060000000000000005
aF-0.01
aF-0.09
aF0.060000000000000005
aF0.0
aF-0.04
aF-0.019999999999999997
aF0.08
aF0.04
aF-0.09
aF0.0
aF-0.12
aF0.09999999999999998
aF-0.02
aF0.0
aF0.0
aF-0.02
aF-0.01
aF3.469446951953614e-18
aF0.0
aF0.02
aF0.0
aF-0.02
aF0.03
aF0.0
aF-0.04
aF0.0
aF-0.02
aF-0.05
aF0.01
aF0.09
aF0.0
aF-0.05
aF-0.08
aF0.01
aF0.0
aF0.0
aF-0.11
aF-0.09000000000000001
aF0.2
aF-0.01
aF0.16999999999999996
aF-0.09000000000000001
aF-0.02
aF0.0
aF0.08
aF0.07999999999999999
aF-0.02
aF0.0
aF0.01
aF0.0
aF0.0
aF0.05
aF0.01
aF-0.02
aF0.0
aF-0.02
aF0.0
aF-0.02
aF0.0
aF0.0
aF0.06
aF0.08
aF0.07
aF-0.01
aF3.469446951953614e-18
aF0.0
aF0.0
aF0.16
aF0.0
aF0.07999999999999999
aF0.0
aF0.16
aF0.0
aF-0.04
aF-0.01
aF0.28
aF-0.01
aF-0.02
aF0.0
aF-0.44000000000000006
aF-0.02
aF-0.05
aF0.04
aF-0.01
aF-0.01
aF0.0
aF-0.1
aF-0.03
aF0.0
aF-0.01
aF0.0
aF0.0
aF-0.02
aF0.0
aF-0.02
aF0.02
aF-0.01
aF-0.01
aF0.0
aF-0.02
aF0.0
aF0.07
aF-0.03
aF0.0
aF-0.01
aF0.04
aF-0.01
aF-0.03
aF-0.02
aF0.0
aF0.0
aF0.02
aF0.0
aF0.5100000000000002
aF0.04
aF-0.01
aF3.469446951953614e-18
aF0.0
aF0.0
aF0.08
aF0.0
aF0.0
aF0.0
aF-0.02
aF-0.05
aF0.0
aF0.12000000000000059
aF-0.06
aF-0.02
aF0.0
aF-0.02
aF0.019999999999999997
aF0.0
aF2.739999999999994
aF0.0
aF0.7800000000000005
aF0.0
aF-0.04
aF-0.03
aF0.0
aF0.0
aF0.0
aF0.0
aF0.08
aF-0.03
aF0.02
aF-0.01
aF-0.02
aF0.0
aF0.01
aF-0.08999999999999998
aF-0.22000000000000003
aF0.060000000000000005
aF-0.10999999999999999
aF0.0
aF-0.03
aF-0.02
aF0.01
aF0.0
aF0.05
aF-0.01
aF0.009999999999999998
aF0.07
aF0.04
aF-0.09
aF0.05
aF0.0
aF-0.01
aF0.0
aF-0.18
aF-0.02
aF0.0
aF-0.02
aF-0.01
aF0.0
aF0.18000000000000002
aF-0.04
aF-0.01
aF0.04
aF-0.05
aF0.0
aF0.02
aF0.0
aF0.019999999999999997
aF-0.03
aF-0.02
aF0.06
aF-0.01
aF0.12999999999999998
aF-0.05
aF-0.02
aF-0.03
aF-0.01
aF0.0
aF-0.01
aF0.09
aF-0.07999999999999999
aF-0.03
aF-0.04
aF-0.029999999999999978
aF0.01
aF0.0
aF0.08
aF0.08
aF0.0
aF0.0
aF-0.09
aF0.009999999999999997
aF0.0
aF-0.03
aF0.0
aF0.0
aF0.02
aF0.16000000000000003
aF0.0
aF0.0
aF0.0
aF0.02
aF0.0
aF0.04
aF0.04
aF0.04
aF0.02
aF0.09
aF-0.019999999999999997
aF-0.02
aF-0.04
aF-0.09000000000000001
aF0.03
aF0.02
aF0.0
aF-0.03
aF-0.01
aF-0.02
aF0.0
aF0.0
aF0.0
aF-0.05
aF-0.03
aF0.0
aF-0.03
aF0.0
aF0.0
aF-0.02
aF0.0
aF-0.01
aF-0.10999999999999999
aF0.08
aF0.01
aF0.52
aF-0.02
aF-0.03
aF0.08
aF-0.01
aF0.04
aF0.03
aF-0.01
aF-0.03
aF0.0
aF0.0
aF-0.16
aF-0.03
aF-0.03
aF0.10999999999999999
aF0.03
aF-0.01
aF0.0
aF-0.09
aF-0.03
aF0.01
aF0.0
aF0.0
aF0.02
aF-0.04
aF-0.02
aF0.0
aF0.1
aF-0.01
aF0.0
aF0.01
aF-0.02
aF-0.01
aF0.0
aF0.05
aF-0.03
aF-0.01
aF0.0
aF0.0
aF0.019999999999999997
aF0.0
aF-0.12000000000000001
aF-0.02
aF0.0
aF0.08
aF0.0
aF-0.04
aF-0.01
aF0.019999999999999997
aF-0.01
aF-0.02
aF-0.02
aF0.019999999999999997
aF0.14
aF0.06
aF0.0
aF-0.03
aF0.0
aF0.6600000000000001
aF0.15
aF0.03
aF0.0
aF-0.02
aF0.0
aF0.0
aF-0.03
aF0.0
aF0.04
aF-0.02
aF0.0
aF0.0
aF0.0
aF-0.02
aF-0.05
aF0.05
aF0.0
aF0.09999999999999999
aF0.0
aF-0.01
aF0.0
aF-0.02
aF-0.02
aF0.02
aF-0.03
aF-0.01
aF-0.03000000000000001
aF0.0
aF-0.03
aF0.0
aF0.02
aF0.0
aF0.0
aF-0.02
aF0.02
aF-0.01
aF-0.03
aF0.0
aF0.10999999999999999
aF0.0
aF0.15
aF-0.14
aF0.0
aF0.09999999999999999
aF-0.01
aF-0.06
aF0.0
aF-0.02
aF-0.39
aF0.01
aF-0.02
aF-0.02
aF-0.09000000000000001
aF-0.02
aF-0.07
aF-0.02
aF0.0
aF0.0
aF-0.02
aF0.0
aF-0.02
aF0.060000000000000005
aF-0.01
aF-0.06
aF-0.05
aF-0.06
aF-0.03
aF0.05
aF-0.05
aF-0.01
aF-0.02
aF-0.04
aF0.08
aF-0.01
aF-0.02
aF0.07
aF0.060000000000000005
aF-0.02
aF0.0
aF0.6200000000000002
aF-0.02
aF-0.04
aF0.19999999999999998
aF-0.02
aF0.01
aF0.0
aF0.0
aF0.0
aF0.20999999999999996
aF0.27
aF0.0
aF-0.01
aF-0.02
aF0.0
aF0.03
aF0.04
aF0.08
aF-0.03
aF-0.03999999999999998
aF0.0
aF0.02
aF0.0
aF0.01
aF-0.01
aF-0.09999999999999999
aF-0.01
aF-0.060000000000000005
aF-0.060000000000000005
aF-0.02
aF0.0
aF-0.07
aF0.01
aF0.0
aF-0.02
aF0.0
aF0.03
aF-0.02
aF-0.03
aF0.0
aF-0.04
aF-0.05
aF0.0
aF0.05
aF-0.05
aF0.11
aF0.0
aF0.13999999999999999
aF0.0
aF-0.02
aF0.0
aF0.0
aF-0.04
aF-0.05
aF0.09999999999999999
aF0.07
aF0.0
aF0.0
aF0.0
aF-0.01
aF-0.02
aF0.01
aF-0.01
aF0.01
aF0.04
aF0.0
aF0.11
aF0.0
aF-0.04
aF-0.01
aF0.0
aF-0.04
aF-0.060000000000000005
aF0.0
aF0.02
aF-0.01
aF-0.02
aF-0.01
aF0.0
aF0.08
aF-0.02
aF0.0
aF-0.02
aF-0.05
aF0.0
aF-0.05
aF0.02
aF-0.01
aF-0.01
aF0.020000000000000004
aF0.02
aF-0.02
aF0.17
aF0.0
aF0.0
aF0.05
aF-0.03
aF0.09000000000000001
aF0.0
aF0.01
aF0.0
aF-0.06
aF-0.02
aF-0.04
aF-0.02
aF-0.03
aF0.0
aF-0.07
aF-0.030000000000000006
aF0.0
aF0.07
aF-0.04
aF-0.01
aF-0.5700000000000003
aF-0.09
aF0.2300000000000001
aF0.0
aF-0.02
aF-0.03
aF0.0
aF0.0
aF0.1100000000000001
aF0.0
aF0.0
aF0.01
aF0.02
aF-0.08
aF-0.01
aF0.0
aF-0.09
aF-0.01
aF-0.15
aF0.0
aF0.05
aF0.0
aF0.0
aF-0.02
aF0.0
aF0.16
aF-0.01
aF0.0
aF-0.44000000000000006
aF-0.08
aF0.0
aF-0.02
aF-0.01
aF-0.08
aF0.0
aF-0.01
aF3.469446951953614e-18
aF-0.12000000000000001
aF-0.02
aF0.04
aF-0.03
aF0.0
aF-0.02
aF-0.01
aF0.07
aF-0.03
aF-0.19000000000000003
aF-0.06000000000000002
aF0.060000000000000005
aF-0.01
aF0.0
aF-0.03
aF-0.02
aF0.01
aF0.0
aF0.0
aF0.060000000000000005
aF-0.01
aF0.17000000000000004
aF-0.04
aF-0.04
aF-0.3600000000000001
aF-0.02
aF0.0
aF0.0
aF0.02
aF0.04
aF0.01
aF0.06
aF-0.04
aF-0.01
aF-0.04
aF0.04
aF0.04999999999999999
aF0.0
aF0.07
aF0.04000000000000001
aF0.0
aF0.05
aF0.05
aF-0.01
aF0.33000000000000007
aF0.1
aF0.0
aF0.07
aF0.11999999999999998
aF0.060000000000000005
aF0.02
aF0.02
aF0.02
aF0.04
aF0.0
aF-0.04
aF-0.03
aF0.0
aF0.0
aF-0.02
aF0.0
aF-0.02
aF0.04
aF-0.03
aF0.0
aF0.0
aF-0.11
aF-0.03
aF-0.01
aF0.01
aF-0.01
aF0.04
aF0.0
aF-0.01
aF0.07
aF-0.05
aF-0.01
aF0.09
aF0.0
aF0.0
aF-0.02
aF-0.03
aF0.060000000000000005
aF-0.16
aF-0.01
aF-0.03
aF0.0
aF-0.01
aF-0.01
aF-0.009999999999999997
aF-0.03
aF0.060000000000000005
aF0.16
aF0.13
aF-0.04
aF-0.02
aF-0.03
aF0.060000000000000005
aF0.11
aF-0.02
aF0.0
aF-0.060000000000000005
aF-0.02
aF-0.03
aF-0.01
aF0.01
aF0.0
aF0.0
aF0.0
aF0.0
aF-0.01
aF0.01
aF0.0
aF0.03
aF0.0
aF-0.02
aF-0.01
aF0.01
aF-0.01
aF0.0
aF0.02
aF-0.01
aF-0.03
aF0.0
aF-0.08
aF-0.05
aF0.0
aF0.01
aF-0.04
aF-0.01
aF-0.04
aF-0.02
aF-0.07
aF0.0
aF0.0
aF0.07
aF-0.09999999999999999
aF0.08
aF-0.01
aF0.0
aF0.03
aF-0.12
aF0.0
aF0.060000000000000005
aF-0.7600000000000002
aF0.060000000000000005
aF0.0
aF-0.05
aF-0.01
aF-0.07
aF0.03
aF0.0
aF0.0
aF0.0
aF-0.01
aF0.0
aF-0.01
aF-0.01
aF-0.03
aF0.0
aF-0.03
aF0.0
aF0.04
aF-0.04
aF0.0
aF0.16000000000000003
aF0.0
aF-0.03
aF-0.04
aF-0.02
aF0.0
aF-0.15
aF-0.01
aF-0.01
aF-0.02
aF-0.18000000000000002
aF0.0
aF0.0
aF0.0
aF-0.10999999999999999
aF0.0
aF0.03
aF-0.04
aF0.0
aF0.0
aF0.0
aF0.02
aF-0.060000000000000005
aF-0.01
aF-0.04
aF0.01
aF0.0
aF-0.03
aF-0.04
aF0.0
aF0.02
aF0.0
aF0.01
aF-0.01
aF-0.09
aF0.0
aF0.06
aF-0.02
aF0.0
aF0.0
aF-0.14
aF0.0
aF-0.01
aF-0.02
aF0.0
aF0.0
aF-0.009999999999999997
aF-0.03
aF-3.469446951953614e-18
aF-0.02
aF-0.06
aF0.0
aF0.0
aF0.0
aF-0.01
aF-0.02
aF0.0
aF0.0
aF0.0
aF-0.05
aF-0.3200000000000001
aF0.04
aF-0.01
aF0.0
aF0.0
aF-0.01
aF-0.04
aF-0.02
aF-0.03
aF-0.04
aF0.060000000000000005
aF0.0
aF-0.01
aF0.0
aF-0.04
aF0.02
aF-0.02
aF-0.11
aF0.19000000000000003
aF-0.06
aF0.08
aF-0.01
aF0.0
aF0.02
aF0.41000000000000003
aF0.18
aF0.0
aF0.04
aF-0.01
aF0.08
aF0.0
aF-0.01
aF0.0
aF-0.02
aF-0.01
aF-0.03
aF0.0
aF-0.01
aF0.0
aF-0.01
aF0.0
aF-0.10999999999999999
aF0.0
aF-0.02
aF-0.02
aF-0.01
aF0.0
aF-0.01
aF-0.030000000000000006
aF-0.03
aF-0.02
aF0.0
aF-0.08
aF0.0
aF0.06
aF-0.04
aF0.16
aF0.0
aF-0.02
aF0.04
aF-0.02
aF-0.06
aF0.0
aF-0.03
aF0.05
aF-0.09
aF-0.02
aF0.0
aF-0.10999999999999997
aF0.07
aF0.0
aF0.08000000000000002
aF0.05
aF-0.03
aF-0.02
aF0.0
aF0.0
aF-0.02
aF-0.04
aF-0.03
aF-0.04
aF-0.2
aF0.06
aF0.0
aF-0.02
aF0.0
aF0.0
aF0.02
aF0.08
aF0.02
aF0.02
aF0.0
aF-0.02
aF-0.01
aF0.03
aF0.01
aF0.0
aF0.02
aF-0.029999999999999992
aF-0.05
aF0.0
aF0.019999999999999997
aF-0.02
aF-0.41000000000000003
aF-4.85722573273506e-17
aF-0.02
aF-0.02
aF0.0
aF-0.1
aF0.04
aF0.04
aF-0.01
aF0.0
aF0.01
aF-0.04
aF-0.01
aF-0.019999999999999997
aF-0.03
aF-0.01
aF-0.04
aF-0.16
aF0.07
aF-0.02
aF0.04
aF0.01
aF0.0
aF-0.01
aF0.0
aF0.0
aF0.0
aF-0.01
aF-0.04
aF0.0
aF0.0
aF-0.13999999999999999
aF-0.08
aF-0.03
aF0.0
aF-0.04
aF-0.01
aF-0.060000000000000005
aF0.02
aF-0.01
aF0.01
aF0.0
aF0.14
aF0.15
aF-0.01
aF-0.02
aF0.08
aF-0.01
aF0.08
aF0.0
aF-0.02
aF0.0
aF-0.16000000000000003
aF-0.060000000000000005
aF-0.03
aF0.26000000000000006
aF-0.01
aF-0.04
aF0.0
aF0.0
aF0.01
aF-0.02
aF0.0
aF0.060000000000000005
aF-0.04
aF-0.02
aF-0.01
aF0.08
aF0.08
aF-0.01
aF0.0
aF-0.02
aF0.01
aF-0.03
aF0.01
aF0.19
aF-0.02
aF0.020000000000000004
aF-0.07
aF0.0
aF-6.938893903907228e-18
aF-0.019999999999999997
aF0.0
aF0.0
aF0.04
aF0.0
aF0.08
aF0.01
aF-0.08999999999999997
aF-0.02
aF0.13
aF-0.02
aF-0.04
aF-0.01
aF-0.02
aF-0.02
aF-0.03
aF-0.02
aF0.02
aF0.05
aF-0.02
aF-0.02
aF-0.03
aF-0.02
aF-0.04
aF-0.01
aF-0.02
aF-0.07
aF-0.01
aF-0.03
aF-0.06
aF-0.1
aF-0.02
aF-0.03
aF0.0
aF-0.04
aF0.04
aF0.0
aF0.0
aF0.0
aF-0.01
aF-0.060000000000000005
aF0.0
aF0.04
aF0.0
aF0.0
aF0.0
aF-0.05
aF-0.05
aF-0.01
aF0.05
aF0.07
aF0.04
aF0.02
aF-0.02
aF-0.04
aF0.0
aF0.0
aF-0.01
aF0.01
aF-0.01
aF-0.009999999999999997
aF-0.01
aF0.0
aF-0.03
aF-0.02
aF0.0
aF-0.02
aF0.020000000000000004
aF0.0
aF0.01
aF0.0
aF0.0
aF0.16
aF0.0
aF-0.04
aF-0.13999999999999999
aF-0.07
aF0.0
aF-0.08
aF0.0
aF-0.020000000000000004
aF-0.05
aF-0.009999999999999997
aF0.7200000000000003
aF0.0
aF-0.02
aF0.15
aF-0.02
aF-0.1
aF-0.01
aF0.02
aF-0.02
aF0.0
aF0.0
aF-0.01
aF-0.04
aF-0.02
aF0.0
aF-0.01
aF-0.03
aF-0.02
aF0.01
aF0.0
aF-0.08
aF0.0
aF-0.01
aF-0.11999999999999998
aF-0.08
aF0.08
aF0.05
aF0.0
aF0.10999999999999999
aF0.05
aF-0.01
aF0.0
aF0.08
aF0.16999999999999998
aF0.6300000000000002
aF0.0
aF-0.02
aF0.0
aF-0.02
aF-0.05
aF-0.05
aF0.02
aF-0.04
aF0.15
aF-0.01
aF-0.03
aF-0.04
aF0.0
aF-0.05
aF-0.21000000000000005
aF0.0
aF-0.16
aF-0.11
aF0.04
aF-0.01
aF-0.01
aF-0.06
aF-0.01
aF-0.02
aF0.019999999999999997
aF0.0
aF-0.03
aF-0.02
aF0.0
aF0.0
aF-0.01
aF0.0
aF-0.04
aF0.18
aF0.06999999999999999
aF0.01
aF0.0
aF-0.01
aF-0.060000000000000005
aF0.03
aF0.01
aF0.04
aF0.10999999999999999
aF0.0
aF-0.01
aF0.0
aF0.0
aF0.0
aF-0.04
aF-0.02
aF0.0
aF0.05
aF0.019999999999999997
aF0.0
aF0.02
aF-0.01
aF-0.01
aF0.0
aF-0.01
aF-0.09
aF-0.04
aF-0.02
aF0.08
aF0.0
aF-0.07
aF-0.060000000000000005
aF-0.01
aF-0.03
aF0.060000000000000005
aF0.060000000000000005
aF0.0
aF0.0
aF0.0
aF0.03
aF-0.1
aF-0.08000000000000003
aF0.0
aF-0.04
aF0.0
aF-0.14
aF0.01
aF-0.03
aF-0.02
aF-0.01
aF-0.05999999999999999
aF-0.01
aF0.01
aF0.08999999999999997
aF-0.16
aF-0.04
aF-0.07
aF-0.06
aF0.0
aF0.01
aF0.0
aF0.03
aF-0.09
aF0.0
aF0.03
aF-0.01
aF-0.04
aF0.02
aF0.02
aF0.27
aF-0.01
aF-0.08
aF-0.01
aF-0.01
aF0.0
aF0.0
aF0.01
aF-0.060000000000000005
aF-0.02
aF-0.03
aF-0.01
aF-0.01
aF-0.01
aF-0.01
aF-0.01
aF-0.09
aF-0.02
aF0.060000000000000005
aF-0.08
aF0.0
aF0.03
aF-0.02
aF0.0
aF0.0
aF-0.06
aF0.0
aF0.0
aF-0.01
aF-0.01
aF-0.02
aF0.03
aF-0.03
aF0.0
aF-0.04
aF-0.03
aF0.02
aF0.0
aF-0.02
aF-0.01
aF-0.01
aF-0.21
aF0.0
aF0.0
aF0.08
aF-0.07
aF0.0
aF-0.08
aF0.01
aF-0.02
aF-0.01
aF0.0
aF-0.16999999999999998
aF-0.15999999999999998
aF-0.01
aF0.08
aF-0.02
aF-0.02
aF-0.01
aF-0.02
aF-0.01
aF0.0
aF-0.01
aF-0.01
aF-0.03
aF-0.01
aF-0.02
aF-0.04
aF0.0
aF0.01
aF-0.04
aF0.04
aF0.0
aF-0.02
aF0.03
aF0.06
aF-0.04
aF0.0
aF-0.02
aF0.01
aF0.019999999999999997
aF-0.01
aF-0.060000000000000005
aF0.08
aF0.0
aF-0.01
aF0.01
aF-0.02
aF0.0
aF0.04
aF0.0
aF0.0
aF-0.01
aF0.0
aF0.05
aF0.0
aF-0.08000000000000002
aF0.14
aF-0.02
aF-0.02
aF0.0
aF0.0
aF-0.01
aF-0.02
aF-0.060000000000000005
aF0.0
aF-0.01
aF0.07
aF-0.08
aF0.0
aF-0.02
aF-0.05999999999999999
aF0.0
aF0.26
aF0.0
aF0.0
aF0.09
aF0.0
aF0.0
aF0.0
aF-0.02
aF0.1
aF0.01
aF-0.02
aF0.01
aF-0.02
aF0.0
aF-0.11
aF0.20000000000000007
aF-0.02
aF0.0
aF0.0
aF-0.01
aF0.01
aF-0.04
aF-0.02
aF-0.05
aF0.36000000000000015
aF-0.049999999999999996
aF0.02
aF0.0
aF-0.13
aF-0.35999999999999965
aF0.0
aF0.13999999999999999
aF0.0
aF-0.03
aF-0.03
aF-0.01999999999999999
aF-0.14
aF0.0
aF-0.08
aF-0.02
aF-0.01
aF0.0
aF-0.02
aF-0.02
aF-0.02
aF0.0
aF-0.02
aF-0.009999999999999997
aF0.0
aF-0.09
aF0.0
aF-0.09
aF-0.060000000000000005
aF0.30000000000000016
aF-0.07
aF-0.13
aF0.0
aF-0.01
aF-0.060000000000000005
aF0.0
aF-0.03
aF-0.05
aF0.05
aF0.01
aF0.060000000000000005
aF0.0
aF-0.02
aF-0.02
aF0.06
aF0.0
aF-0.04000000000000001
aF-0.04
aF0.0
aF-0.03
aF0.0
aF-0.03
aF0.01
aF-0.03
aF0.060000000000000005
aF0.04
aF0.03
aF0.019999999999999997
aF-0.02
aF0.11999999999999998
aF-0.17
aF0.02
aF-0.01
aF0.01
aF0.06
aF0.02
aF0.04
aF-0.06
aF0.04
aF0.0
aF0.01
aF0.04
aF0.03
aF0.0
aF0.0
aF0.09999999999999999
aF-0.02
aF0.0
aF0.08
aF0.2
aF-0.060000000000000005
aF0.08
aF0.0
aF0.1
aF-0.02
aF-0.01
aF0.01
aF-0.02
aF0.0
aF-0.02
aF-0.08
aF0.0
aF0.0
aF0.0
aF0.0
aF0.28
aF-0.02
aF0.0
aF0.01
aF0.43999999999999995
aF0.0
aF0.09000000000000001
aF0.08
aF0.02
aF0.0
aF-0.07
aF0.09
aF3.469446951953614e-18
aF0.01
aF0.02
aF0.0
aF-0.02
aF0.0
aF-0.01
aF0.0
aF-0.04
aF0.0
aF-0.01
aF-0.01
aF-0.02
aF-0.03
aF-0.09
aF0.01
aF0.0
aF0.01
aF0.02
aF0.0
aF-0.02
aF0.05
aF-0.02
aF0.0
aF0.0
aF-0.11
aF-0.020000000000000004
aF0.03
aF-0.02
aF0.0
aF-0.09
aF-0.25000000000000006
aF0.05
aF-0.05
aF0.03
aF-0.01
aF-0.01
aF-0.02
aF0.07
aF-0.02
aF0.0
aF-0.01
aF0.07
aF0.0
aF0.2800000000000001
aF-0.02
aF0.19999999999999996
aF-0.02
aF0.01
aF-0.01
aF0.0
aF0.2
aF-0.03
aF0.0
aF0.060000000000000005
aF0.01
aF0.02
aF-0.03
aF1.0100000000000002
aF-0.03
aF-0.060000000000000005
aF-0.27
aF-0.01
aF0.04000000000000001
aF0.01
aF-0.02
aF-0.02
aF0.22
aF0.3900000000000001
aF-0.02
aF0.0
aF0.0
aF0.0
aF-0.04
aF-0.04
aF0.04
aF-0.01
aF0.0
aF-0.01
aF-0.01
aF-0.07
aF0.0
aF-0.01
aF-0.03
aF-0.02
aF-0.02
aF-0.08
aF-0.02
aF-0.01
aF0.08000000000000002
aF0.02
aF0.0
aF0.11999999999999998
aF0.0
aF-3.469446951953614e-18
aF0.0
aF0.0
aF0.06
aF-0.07
aF-0.02
aF0.4900000000000002
aF0.08
aF0.0
aF0.0
aF0.03
aF0.01
aF0.0
aF0.0
aF-0.03
aF2.42861286636753e-17
aF0.0
aF0.0
aF0.0
aF-0.02
aF-0.13
aF0.0
aF-0.02
aF0.04
aF-0.06
aF0.0
aF-0.01
aF0.04
aF0.01
aF-0.08
aF-0.07999999999999999
aF0.05
aF0.02
aF0.0
aF0.17000000000000004
aF-0.11999999999999998
aF0.0
aF0.0
aF0.0
aF0.0
aF0.0
aF0.0
aF-0.02
aF0.0
aF-0.03
aF-0.01
aF0.05
aF0.0
aF-0.01
aF0.0
aF0.0
aF-0.02
aF0.10999999999999999
aF-0.01
aF-0.04
aF0.0
aF0.0
aF0.11
aF0.0
aF0.08
aF0.0
aF-0.02
aF-0.01
aF-0.05
aF-0.01
aF-0.02
aF0.0
aF-0.02
aF0.03
aF0.01
aF-0.02
aF0.0
aF-0.060000000000000005
aF0.0
aF-0.06
aF0.04
aF-0.02
aF0.0
aF0.0
aF-0.02
aF0.0
aF0.12000000000000001
aF-0.03
aF-0.1
aF0.0
aF0.0
aF0.02
aF0.03
aF-0.04
aF-0.060000000000000005
aF0.02
aF-0.02
aF-0.08
aF-0.01
aF0.0
aF0.0
aF0.0
aF0.02
aF-0.09
aF-0.01
aF0.03
aF0.01
aF0.01
aF0.02
aF-0.02
aF-0.01
aF-0.11
aF0.15
aF0.0
aF0.4
aF-0.02
aF0.05
aF0.02
aF0.11
aF-0.02
aF0.0
aF0.07
aF-0.06
aF0.0
aF-0.10999999999999999
aF0.0
aF0.02
aF-0.05
aF0.0
aF-0.01
aF0.0
aF0.0
aF-0.02
aF-0.02
aF-0.05
aF0.04
aF0.11999999999999998
aF-0.09999999999999999
aF0.0
aF-0.02
aF-0.2800000000000001
aF-0.4299999999999999
aF-0.01
aF-0.03
aF0.01
aF0.11999999999999998
aF0.0
aF0.03
aF0.01
aF0.0
aF0.0
aF-0.3999999999999997
aF-0.04
aF-0.01
aF-0.019999999999999997
aF-0.019999999999999997
aF0.0
aF0.0
aF-0.23999999999999977
aF0.0
aF0.01
aF0.0
aF0.0
aF0.0
aF-0.02
aF-0.02
aF0.0
aF-0.11000000000000001
aF0.0
aF0.06
aF-0.01
aF-0.01
aF-0.01
aF-0.01
aF-0.01
aF-0.02
aF-0.02
aF0.0
aF-0.03
aF-0.8900000000000006
aF0.0
aF0.0
aF-0.01
aF0.0
aF0.01
aF0.0
aF0.13
aF0.009999999999999997
aF-0.02
aF-0.01
aF-0.04
aF-0.12000000000000001
aF-0.03
aF0.01
aF0.08
aF0.0
aF-0.01
aF0.11
aF0.0
aF-0.06999999999999999
aF0.08
aF0.02
aF0.08
aF0.05
aF0.009999999999999998
aF0.01
aF0.0
aF0.0
aF-0.01
aF0.03
aF0.09
aF0.0
aF0.0
aF-0.03
aF-0.01
aF-0.04
aF0.0
aF-0.24000000000000002
aF0.02
aF-0.12
aF0.03
aF-0.12
aF0.12000000000000001
aF0.15999999999999998
aF0.0
aF0.06
aF0.0
aF-0.08
aF-0.03
aF0.0
aF0.06
aF-0.01
aF-0.02
aF0.060000000000000005
aF0.01
aF-0.01
aF0.0
aF0.0
aF-0.029999999999999992
aF0.0
aF-0.02
aF0.0
aF0.08
aF-0.04
aF0.01
aF0.0
aF-0.01
aF0.0
aF-0.05
aF0.0
aF0.0
aF0.09
aF0.05
aF-0.04
aF-0.03
aF0.0
aF0.0
aF0.0
aF-0.03
aF-0.02
aF0.0
aF-0.01
aF0.0
aF0.08
aF-0.05
aF0.04
aF0.13
aF0.04000000000000001
aF-0.13999999999999999
aF0.03
aF0.0
aF-0.01
aF0.05
aF0.0
aF0.0
aF0.0
aF-0.03
aF-0.01
aF0.0
aF0.09000000000000001
aF-0.01
aF-0.02
aF-0.02
aF0.1
aF0.0
aF-0.01
aF0.0
aF-0.05
aF0.0
aF0.0
aF0.0
aF0.0
aF0.0
aF0.0
aF0.01
aF-0.07
aF0.0
aF0.0
aF-0.04
aF-0.009999999999999998
aF0.0
aF0.01
aF-0.01
aF0.12000000000000001
aF-0.01
aF-0.03
aF-0.01
aF-0.09
aF-0.01
aF-0.01
aF0.0
aF-0.02
aF-0.05
aF0.0
aF0.0
aF-0.01
aF-0.09
aF-0.04
aF-0.01
aF-0.02
aF0.03
aF-0.02
aF0.0
aF-0.07
aF0.0
aF-0.07
aF-0.02
aF0.0
aF-0.11
aF-0.01
aF0.04
aF0.0
aF-0.01
aF-0.03
aF0.0
aF0.21999999999999997
aF0.02
aF-0.02
aF-0.03
aF-0.02
aF0.01
aF0.0
aF0.0
aF0.0
aF-0.01
aF-0.1
aF0.02
aF0.0
aF-0.03
aF0.0
aF-0.04
aF0.019999999999999997
aF-0.05
aF0.0
aF-0.06
aF0.0
aF0.10999999999999999
aF0.0
aF-0.06
aF0.01
aF-0.020000000000000004
aF-0.04
aF-0.02
aF0.05
aF0.0
aF0.08
aF-0.04
aF-0.04
aF-0.01
aF-0.03
aF0.0
aF0.04
aF0.02
aF-0.11999999999999998
aF-0.02
aF0.25
aF-0.04
aF0.04
aF-0.04
aF-0.03
aF-0.01
aF0.0
aF0.0
aF-0.060000000000000005
aF0.0
aF0.0
aF0.02
aF-0.10999999999999997
aF0.0
aF-0.01
aF0.0
aF0.0
aF0.03
aF0.03
aF-0.02
aF0.04
aF0.04
aF0.0
aF0.0
aF0.0
aF-0.09000000000000001
aF0.0
aF0.04
aF0.08
aF-0.11
aF0.18999999999999995
aF0.02
aF-0.01
aF0.07
aF-0.02
aF-0.03
aF-0.08
aF-0.02
aF0.04
aF-0.08
aF-0.01
aF0.0
aF0.0
aF0.0
aF0.6000000000000001
aF0.06
aF-0.01
aF0.0
aF0.02
aF-0.06
aF-0.030000000000000006
aF-0.04
aF0.01
aF-0.01
aF-0.01
aF-0.01
aF0.0
aF0.0
aF0.04
aF0.04
aF0.1
aF-0.02
aF0.04
aF-0.01
aF0.0
aF-0.01
aF0.0
aF0.04
aF0.0
aF0.0
aF-1.340000000000001
aF0.0
aF0.0
aF-0.01
aF0.25
aF0.02
aF-0.02
aF0.0
aF0.0
aF-0.02
aF0.01
aF0.0
aF0.04
aF-0.02
aF-0.04
aF0.0
aF0.0
aF-0.04
aF0.0
aF0.0
aF0.0
aF0.0
aF0.060000000000000005
aF0.02
aF-0.02
aF-0.04
aF-0.02
aF-0.04
aF-0.02
aF-0.03
aF0.0
aF0.0
aF-0.01
aF0.03
aF0.0
aF-0.02
aF0.0
aF0.0
aF0.0
aF0.0
aF-0.06
aF0.02
aF-0.009999999999999997
aF-0.09
aF-0.060000000000000005
aF0.0
aF0.039999999999999994
aF0.09
aF0.03
aF0.2
aF0.03
aF-0.060000000000000005
aF0.04
aF-0.060000000000000005
aF0.04
aF0.0
aF-0.02
aF-0.01
aF-0.02
aF-0.07
aF0.01
aF-0.06
aF0.02
aF-0.03
aF0.08
aF0.0
aF0.08
aF0.060000000000000005
aF-0.02
aF-0.05
aF0.11
aF-0.03
aF0.0
aF0.02
aF0.0
aF-0.03
aF0.049999999999999996
aF0.0
aF0.0
aF-0.01
aF-0.02
aF0.0
aF0.0
aF-0.03
aF0.0
aF0.0
aF0.08
aF-0.03
aF-0.01
aF0.0
aF-0.05
aF-0.04
aF3.469446951953614e-18
aF0.01
aF-0.07
aF-0.01
aF0.009999999999999998
aF-0.01
aF0.0
aF0.0
aF0.0
aF-0.02
aF0.02
aF0.01
aF-0.09
aF0.0
aF0.0
aF-0.009999999999999997
aF0.02
aF0.7900000000000003
aF0.0
aF-0.01
aF-0.16
aF-0.03
aF0.0
aF-0.11999999999999998
aF0.07
aF0.08
aF0.02
aF0.0
aF-0.04
aF-0.02
aF-0.03
aF-0.05
aF0.06999999999999999
aF-0.01
aF0.02
aF0.02
aF0.07
aF0.0
aF0.07
aF-0.01
aF-0.05
aF-0.02
aF0.12000000000000001
aF-0.03
aF0.0
aF0.07
aF-0.09999999999999999
aF0.02
aF0.10999999999999999
aF0.30000000000000004
aF0.0
aF0.01
aF0.03
aF-0.08
aF-0.06
aF0.0
aF-0.01
aF0.01
aF0.0
aF0.0
aF-0.02
aF0.0
aF0.2
aF-0.36000000000000015
aF0.0
aF0.0
aF0.0
aF0.02
aF-0.08
aF-0.01
aF-0.06
aF0.06
aF-0.02
aF-0.01
aF-0.05
aF0.0
aF-0.16
aF0.0
aF0.0
aF-0.02
aF0.020000000000000014
aF0.0
aF0.02
aF0.0
aF0.0
aF-0.019999999999999997
aF-0.08
aF-0.04
aF-0.02
aF-0.01
aF-0.01
aF0.0
aF0.0
aF0.01
aF0.06
aF0.07
aF0.0
aF0.01
aF-0.01
aF0.01
aF-0.14
aF0.0
aF-0.09
aF0.0
aF0.09
aF-0.01
aF-0.10999999999999999
aF0.0
aF0.019999999999999997
aF0.08
aF0.0
aF-0.01
aF-0.31
aF-0.01
aF0.07
aF0.0
aF0.08
aF0.01
aF-0.01
aF-0.04
aF0.07
aF-0.02
aF0.0
aF-0.010000000000000004
aF-0.04
aF-0.02
aF-0.03
aF-0.05
aF0.0
aF0.0
aF-0.03
aF0.08
aF0.01
aF0.08
aF0.08
aF-0.03
aF-0.01
aF-0.02
aF0.16999999999999998
aF0.08
aF0.04
aF-0.02
aF-0.01
aF0.0
aF-0.01
aF0.0
aF0.0
aF0.02
aF-0.02
aF-0.02
aF0.0
aF0.09999999999999999
aF0.0
aF-0.05
aF-0.09
aF-0.04
aF-0.01
aF0.0
aF0.6100000000000003
aF-0.01
aF0.0
aF-0.15000000000000002
aF0.05
aF0.0
aF0.0
aF0.0
aF0.0
aF-0.01
aF0.07
aF0.04
aF-0.009999999999999997
aF0.0
aF0.14
aF-0.05
aF0.0
aF0.09
aF0.0
aF-0.06999999999999999
aF0.0
aF-0.019999999999999997
aF0.03
aF0.0
aF0.0
aF-0.02
aF0.0
aF0.010000000000000002
aF0.12000000000000001
aF0.28000000000000014
aF-0.009999999999999997
aF0.4
aF-0.02
aF-0.02
aF0.02
aF-0.04
aF0.0
aF-0.17
aF-0.11
aF-0.03
aF-0.04
aF0.0
aF-0.02
aF-0.01
aF-0.16
aF-0.04000000000000001
aF-0.01
aF-0.09999999999999998
aF-0.01
aF0.0
aF0.0
aF-0.01
aF-0.04
aF0.0
aF0.03
aF0.0
aF-0.01
aF0.01
aF0.13999999999999999
aF-0.1
aF-0.03
aF0.0
aF0.12000000000000001
aF0.07
aF0.25000000000000006
aF0.3600000000000001
aF0.20999999999999994
aF0.16999999999999993
aF0.33
aF0.3200000000000001
aF0.31
aF0.28
aF0.31000000000000005
aF0.26
aF-0.06999999999999999
aF0.0
aF0.060000000000000005
aF-0.01
aF0.0
aF0.07
aF-0.01
aF0.0
aF0.04
aF0.03
aF0.02
aF0.0
aF-0.09000000000000001
aF0.0
aF-0.04
aF-0.01
aF0.020000000000000004
aF-0.05
aF0.0
aF-0.01
aF-0.02
aF0.08
aF0.0
aF-0.49000000000000027
aF0.0
aF-0.03
aF-0.03
aF-0.01
aF0.02
aF0.0
aF0.0
aF-0.02
aF0.05
aF0.02
aF-0.11
aF-0.02
aF0.05
aF-0.08
aF-0.01
aF-0.02
aF0.060000000000000005
aF0.0
aF0.01
aF0.0
aF-0.02
aF0.060000000000000005
aF0.0
aF0.0
aF0.0
aF0.0
aF0.0
aF0.0
aF-0.009999999999999997
aF-0.05000000000000001
aF-0.01
aF-0.02
aF0.0
aF0.0
aF-0.04
aF-0.13
aF-0.04
aF0.0
aF0.0
aF-0.01
aF0.04
aF0.09
aF0.48000000000000026
aF0.0
aF-0.01
aF-0.01
aF0.0
aF0.0
aF0.0
aF0.13999999999999999
aF0.01
aF0.0
aF-0.03
aF-0.01
aF0.08
aF-0.13
aF0.01
aF0.01
aF0.060000000000000005
aF-0.01
aF0.0
aF0.0
aF-0.03
aF-0.10999999999999999
aF0.01
aF0.0
aF0.24000000000000005
aF-0.03
aF0.0
aF0.08
aF0.0
aF-0.01
aF0.01
aF0.04
aF0.07
aF-0.01
aF0.009999999999999988
aF0.0
aF0.0
aF0.0
aF0.0
aF0.0
aF0.09000000000000001
aF0.02
aF-0.03
aF0.0
aF-0.02
aF0.0
aF0.0
aF0.0
aF0.0
aF0.05
aF0.08
aF-0.02
aF0.0
aF-0.04999999999999999
aF0.0
aF0.0
aF-0.05
aF0.0
aF0.0
aF-0.04
aF0.0
aF-0.04
aF0.0
aF-0.33
aF-0.01
aF0.0
aF0.0
aF-0.03
aF0.0
aF-0.019999999999999997
aF-0.02
aF0.09
aF-0.04
aF0.0
aF0.0
aF-0.03
aF-0.02
aF-0.07
aF0.0
aF-0.02
aF0.0
aF-0.02
aF-0.01
aF-0.02
aF-0.03
aF-0.01
aF0.05
aF0.0
aF0.04
aF0.05
aF0.0
aF-0.01
aF-0.01
aF0.03
aF0.24000000000000002
aF-0.08999999999999998
aF0.0
aF0.0
aF-0.18
aF0.08
aF-0.12
aF0.0
aF-0.13999999999999999
aF-0.04
aF-0.08999999999999998
aF0.0
aF-0.04
aF-0.07
aF-0.01
aF0.0
aF-0.01
aF0.05
aF-0.04
aF-0.03
aF0.0
aF-0.060000000000000005
aF0.0
aF-0.04
aF-0.01
aF-0.02
aF-0.02
aF-0.09
aF-0.01
aF-0.01
aF-0.01
aF0.0
aF-0.08
aF-0.02
aF0.03
aF0.0
aF0.02
aF-0.05
aF0.01
aF-0.01
aF0.03
aF0.0
aF-0.03
aF-0.009999999999999997
aF0.01
aF-0.08
aF-0.01
aF0.0
aF0.04
aF0.01
aF0.0
aF0.7200000000000006
aF-0.02
aF0.04
aF-0.01
aF-0.01
aF-0.01
aF-0.02
aF0.0
aF-0.01
aF0.0
aF-0.03
aF-0.010000000000000004
aF0.0
aF0.08
aF0.0
aF0.0
aF-0.02
aF0.0
aF-0.04
aF0.0
aF0.0
aF0.06
aF-0.01
aF0.010000000000000004
aF0.0
aF0.0
aF-0.18
aF0.0
aF-0.09999999999999999
aF0.0
aF0.01
aF0.0
aF-0.03
aF-0.11999999999999998
aF0.0
aF-0.08
aF-0.03
aF-0.02
aF-0.01
aF0.0
aF-0.01
aF0.08
aF0.05
aF0.0
aF0.019999999999999997
aF-0.01
aF0.03
aF-0.02
aF0.02
aF-0.03
aF0.0
aF0.0
aF0.0
aF0.0
aF0.0
aF-0.03
aF0.0
aF0.0
aF0.02
aF-0.02
aF0.05
aF-0.01
aF0.0
aF0.0
aF0.0
aF-0.03
aF0.0
aF0.0
aF0.02
aF-0.02
aF-0.12000000000000001
aF0.0
aF0.13
aF0.0
aF0.03
aF-0.09
aF0.04
aF0.0
aF0.05
aF0.1
aF0.0
aF0.0
aF-0.02
aF-0.03
aF0.6400000000000001
aF-0.02
aF-0.02
aF-0.04
aF0.0
aF0.02
aF-0.03
aF0.02
aF0.47000000000000025
aF0.0
aF-0.01
aF0.01
aF0.05
aF0.08
aF0.0
aF-0.01
aF-0.01
aF-0.12000000000000001
aF0.04
aF-0.10999999999999999
aF0.0
aF0.0
aF-0.23
aF-0.05
aF0.0
aF0.02
aF0.0
aF-0.08
aF0.15000000000000002
aF0.04000000000000001
aF0.46
aF-0.16
aF-0.01
aF0.0
aF0.03
aF-0.06
aF-0.06
aF0.0
aF0.0
aF0.0
aF0.0
aF-0.09
aF0.03
aF-0.04
aF0.0
aF0.15
aF0.23000000000000007
aF-0.02
aF0.10999999999999999
aF-0.02
aF0.01
aF-0.01
aF-0.04
aF0.0
aF-0.02
aF0.04
aF-0.01
aF0.0
aF0.02
aF0.09999999999999999
aF0.04
aF-0.02
aF-0.07
aF-0.02
aF-0.02
aF0.0
aF0.0
aF0.060000000000000005
aF0.08
aF-0.060000000000000005
aF0.0
aF-0.02
aF0.0
aF0.40000000000000024
aF0.0
aF-0.02
aF-0.01
aF0.0
aF0.0
aF0.0
aF0.0
aF0.05
aF0.10999999999999999
aF0.09999999999999999
aF0.01
aF0.0
aF-0.02
aF0.0
aF0.01
aF0.03
aF-0.02
aF0.0
aF0.0
aF0.09000000000000001
aF0.0
aF-0.03
aF0.060000000000000005
aF0.03
aF-0.03
aF0.0
aF0.1
aF-0.05
aF-0.05
aF-0.02
aF0.0
aF0.05
aF0.03
aF-0.02
aF-0.2
aF0.0
aF-0.01
aF0.02
aF-0.02
aF0.0
aF-0.02
aF0.0
aF0.0
aF0.0
aF0.060000000000000005
aF-0.07
aF0.060000000000000005
aF-0.03
aF-0.01
aF-0.01
aF-0.02
aF0.03
aF-0.04
aF0.05
aF0.01
aF-0.02
aF0.0
aF-0.03
aF-0.22999999999999998
aF0.0
aF0.0
aF-0.02
aF-0.20000000000000007
aF0.04
aF0.13999999999999996
aF0.23999999999999996
aF0.16
aF0.08
aF0.0
aF0.0
aF0.0
aF-0.02
aF0.03
aF-0.04
aF-0.01
aF0.09
aF-0.02
aF0.0
aF0.01
aF-0.03
aF0.01
aF0.01
aF-0.01
aF-0.11999999999999998
aF0.21
aF-0.060000000000000005
aF0.14999999999999997
aF0.12
aF0.0
aF-0.02
aF0.02
aF-0.01
aF-0.01
aF-0.03
aF0.0
aF0.01
aF-0.5000000000000001
aF0.0
aF-0.02
aF-0.13
aF-0.05
aF0.0
aF0.0
aF0.3700000000000001
aF-0.01
aF0.02
aF-0.01
aF0.0
aF0.01
aF-0.02
aF0.0
aF-0.02
aF-0.02
aF0.0
aF-0.01
aF0.0
aF-0.08
aF0.0
aF0.07
aF0.0
aF-0.02
aF0.05
aF0.0
aF0.08
aF0.06
aF0.0
aF-0.01
aF-0.13
aF-0.11999999999999998
aF-0.01
aF-0.02
aF0.02
aF-0.06
aF-0.05
aF0.01
aF-0.060000000000000005
aF-0.06
aF-0.01
aF-0.14
aF0.02
aF0.0
aF-0.02
aF-0.06
aF-0.01
aF0.02
aF0.01
aF0.10999999999999999
aF0.0
aF-0.03
aF0.0
aF-0.02
aF-0.06
aF0.0
aF0.02
aF-0.02
aF-0.16
aF0.02
aF-0.01
aF0.0
aF-0.02
aF-0.02
aF0.16
aF-0.04
aF-0.02
aF-0.10999999999999999
aF0.0
aF0.0
aF0.08
aF-0.04
aF0.0
aF0.0
aF-0.09
aF0.0
aF-0.01
aF0.0
aF0.0
aF-0.02
aF-0.05
aF0.02
aF-0.06
aF-0.04
aF0.0
aF0.0
aF-0.01
aF0.0
aF-0.01
aF-0.05
aF0.8100000000000004
aF-0.04
aF-0.03
aF-0.09
aF0.0
aF-0.02
aF-0.01
aF-0.01
aF-0.09000000000000002
aF0.0
aF-0.01
aF-0.02
aF-0.02
aF0.0
aF-0.04
aF0.02
aF-0.02
aF0.0
aF0.0
aF-0.02
aF0.0
aF0.0
aF0.0
aF0.0
aF-0.02
aF-0.10999999999999999
aF-0.08
aF0.0
aF0.04
aF-0.019999999999999997
aF0.07
aF-0.05
aF-0.03
aF-0.04
aF-0.08
aF0.20000000000000004
aF0.05
aF-0.01
aF0.0
aF0.0
aF-0.02
aF0.0
aF0.01
aF0.0
aF-0.01
aF0.0
aF0.0
aF0.0
aF0.02
aF-0.009999999999999998
aF-0.01
aF-0.03
aF-0.09
aF-0.01
aF0.06
aF0.0
aF0.03
aF-0.02
aF-0.07
aF-0.02
aF0.0
aF0.0
aF0.0
aF0.0
aF0.060000000000000005
aF-0.03
aF0.01
aF0.0
aF-0.02
aF-0.02
aF-0.02
aF0.0
aF-0.03
aF0.0
aF-0.01
aF0.0
aF-0.04
aF0.0
aF-0.18000000000000002
aF0.38000000000000006
aF-0.03
aF-0.12
aF-0.02
aF0.09999999999999998
aF0.010000000000000004
aF0.0
aF-0.08000000000000002
aF-0.02
aF-0.02
aF0.01
aF-0.02
aF0.0
aF0.0
aF0.0
aF-0.01
aF0.04
aF-0.02
aF-0.08
aF0.41000000000000014
aF0.0
aF0.01
aF0.0
aF-0.02
aF-0.01
aF-0.02
aF-0.11999999999999998
aF-0.02
aF-0.02
aF-0.02
aF0.0
aF0.26
aF0.0
aF0.8800000000000006
aF0.09000000000000001
aF0.6000000000000002
aF0.0
aF0.3800000000000001
aF-0.02
aF0.0
aF-0.05
aF-0.1
aF0.0
aF0.12999999999999998
aF0.03
aF0.0
aF0.09000000000000002
aF0.07
aF-0.02
aF-0.16
aF-0.04
aF-0.04
aF0.2
aF0.0
aF-0.04
aF-0.01
aF-0.09999999999999999
aF-0.23000000000000004
aF-0.02
aF-0.03
aF-0.04
aF0.02
aF0.02
aF-0.03
aF-0.04
aF0.0
aF0.26999999999999996
aF-0.09000000000000001
aF-0.02
aF-0.01
aF0.03
aF0.08
aF0.0
aF0.03
aF0.04
aF0.0
aF0.01
aF-0.10999999999999999
aF-0.09
aF-0.019999999999999997
aF0.0
aF-0.4300000000000001
aF-0.01
aF0.19000000000000006
aF-0.11000000000000001
aF0.0
aF-0.03
aF-0.03
aF-0.12
aF0.0
aF0.0
aF0.0
aF-0.06
aF-0.01
aF0.29
aF0.01
aF0.0
aF0.01
aF0.0
aF0.0
aF0.0
aF0.0
aF0.3
aF-0.04
aF-0.04
aF0.0
aF-0.04
aF0.0
aF-0.04
aF0.04
aF-0.01
aF-0.01
aF0.0
aF0.0
aF-0.04
aF0.0
aF0.09
aF-0.09
aF0.01
aF-0.08
aF-0.04
aF-0.03
aF0.0
aF-0.03
aF0.0
aF0.0
aF-0.02
aF-0.03
aF0.0
aF0.0
aF0.08
aF-0.03
aF0.0
aF0.16
aF0.0
aF0.0
aF-0.03
aF0.08
aF0.0
aF-0.02
aF-0.02
aF-0.17
aF-0.01
aF0.0
aF-0.02
aF0.01
aF0.06
aF0.0
aF0.0
aF-0.03
aF0.03
aF0.0
aF-0.02
aF0.0
aF-0.01
aF0.009999999999999997
aF-0.04
aF0.01
aF-0.1
aF0.10999999999999999
aF0.01
aF0.03
aF0.0
aF-0.02
aF-0.02
aF0.08
aF-0.03
aF0.0
aF0.0
aF0.0
aF0.01
aF-0.03
aF-0.02
aF-0.01
aF-0.1
aF-0.01
aF-0.44000000000000017
aF0.0
aF-0.01
aF-0.050000000000000044
aF-0.01
aF0.0
aF-0.01
aF0.0
aF-0.03
aF-0.07
aF0.0
aF0.0
aF0.07
aF0.03
aF-0.04
aF0.0
aF-0.02
aF-0.15999999999999998
aF0.0
aF0.0
aF-0.04
aF-0.08
aF0.02
aF0.0
aF-0.08
aF-0.06
aF-0.03
aF-0.01
aF0.03
aF0.0
aF-0.02
aF-0.08
aF0.18000000000000002
aF0.0
aF-0.01
aF-0.04
aF-0.05
aF-0.01
aF0.01
aF0.0
aF-0.04
aF0.0
aF-0.01
aF0.01
aF-0.08
aF0.04
aF0.0
aF0.04
aF0.03
aF-0.039999999999999994
aF0.02
aF-0.03
aF0.07
aF0.0
aF0.02
aF0.0
aF0.0
aF-0.01
aF-0.03
aF0.0
aF-0.03
aF-0.03
aF0.02
aF0.0
aF0.0
aF-0.11
aF-0.01
aF0.02
aF0.03
aF0.01
aF0.0
aF0.01
aF0.0
aF-0.02
aF0.01
aF-0.03
aF0.02
aF-0.01
aF0.09999999999999999
aF-0.02
aF0.0
aF0.03
aF-0.04
aF0.019999999999999997
aF0.0
aF0.02
aF0.0
aF0.0
aF-0.01
aF0.12000000000000001
aF0.3000000000000001
aF0.0
aF-0.03
aF0.0
aF-0.02
aF0.01
aF0.01
aF-0.02
aF0.02
aF-0.03
aF0.0
aF0.01
aF-0.02
aF-0.03
aF0.0
aF-0.02
aF0.0
aF0.04
aF0.0
aF-0.05
aF0.060000000000000005
aF-0.02
aF-0.17
aF0.0
aF-0.12
aF-0.03
aF-0.02
aF0.0
aF0.05
aF0.35
aF0.01
aF0.02
aF-0.060000000000000005
aF0.04
aF0.0
aF-0.03
aF0.0
aF0.10999999999999999
aF-0.01
aF-0.06999999999999999
aF0.0
aF-0.02
aF1.0400000000000005
aF-0.01
aF-0.04
aF0.03
aF-0.03
aF0.0
aF-0.04
aF-0.03
aF-0.01
aF-0.06
aF0.06
aF-0.02
aF-0.03
aF-0.03
aF0.060000000000000005
aF0.04
aF0.0
aF-0.17
aF0.0
aF0.02
aF-0.06
aF0.04
aF-0.04
aF-0.01
aF0.0
aF0.13999999999999999
aF0.06999999999999995
aF0.0
aF0.03
aF0.02
aF-0.060000000000000005
aF-0.05
aF0.0
aF-0.08
aF-0.03
aF-0.02
aF0.060000000000000005
aF0.0
aF0.0
aF-0.02
aF-0.04
aF0.0
aF-0.07999999999999999
aF-0.05
aF-0.02
aF0.0
aF-0.05
aF0.0
aF-0.02
aF-0.03
aF0.0
aF-0.27999999999999997
aF-0.03
aF-0.07
aF-0.03
aF-0.02
aF0.0
aF0.05
aF0.019999999999999997
aF0.0
aF0.20999999999999996
aF-0.02
aF0.0
aF-0.01
aF0.0
aF0.07
aF0.0
aF0.0
aF-0.02
aF0.0
aF-0.01
aF0.01
aF0.0
aF0.0
aF0.06
aF0.02
aF0.0
aF-0.04
aF0.04
aF0.0
aF0.07
aF0.0
aF-0.05
aF-0.01
aF-0.01
aF-0.01
aF-0.01
aF-0.01
aF-0.02
aF0.15
aF-0.01
aF0.0
aF0.0
aF0.43000000000000005
aF0.04
aF0.03
aF0.029999999999999992
aF0.020000000000000004
aF0.01
aF0.01
aF0.0
aF-0.01
aF-0.02
aF-0.020000000000000004
aF0.0
aF0.03
aF0.12
aF0.03
aF-0.060000000000000005
aF-0.07
aF-0.12
aF-0.04
aF-0.02
aF0.0
aF0.08
aF-0.02
aF-0.01
aF-0.05
aF-0.02
aF0.0
aF-0.09000000000000001
aF-0.04
aF-1.734723475976807e-18
aF-0.08
aF-0.010000000000000004
aF-0.01
aF-0.01
aF0.10999999999999999
aF0.6400000000000003
aF-0.02
aF0.01
aF0.03
aF-0.03
aF-0.15
aF-0.03
aF-0.04
aF0.0
aF0.09
aF-0.02
aF0.07
aF-0.01
aF-0.03
aF0.0
aF-0.02
aF0.009999999999999997
aF0.02
aF-0.22000000000000006
aF-0.02
aF0.02
aF0.09000000000000001
aF0.060000000000000005
aF0.060000000000000005
aF0.08
aF-0.01
aF0.0
aF-0.01
aF0.019999999999999997
aF0.08
aF-0.28
aF-0.01
aF0.05
aF-0.03
aF0.5200000000000001
aF-0.23
aF0.0
aF-0.03
aF0.0
aF0.0
aF-0.060000000000000005
aF0.0
aF0.0
aF0.0
aF0.0
aF0.09999999999999999
aF0.12000000000000001
aF0.0
aF-0.04
aF-0.07
aF0.0
aF0.01
aF0.009999999999999997
aF-0.04
aF-0.12999999999999998
aF-0.01
aF0.08
aF-0.03
aF-0.04
aF0.0
aF-0.02
aF-0.01
aF-0.01
aF-0.02
aF0.01
aF-0.02
aF-0.02
aF0.0
aF-0.03
aF-0.02
aF-0.01
aF-0.01
aF0.0
aF0.0
aF-0.01
aF0.06999999999999999
aF0.0
aF0.0
aF-3.469446951953614e-18
aF0.0
aF0.03
aF0.0
aF0.08
aF0.03
aF0.06
aF-0.01
aF0.0
aF0.0
aF0.03
aF0.0
aF-0.02
aF0.0
aF0.0
aF-0.03
aF-0.02
aF0.0
aF-0.02
aF0.01
aF-0.1
aF0.0
aF0.05
aF0.01
aF0.0
aF-0.01
aF0.0
aF-0.05
aF0.0
aF0.09
aF0.0
aF-0.03
aF0.12
aF-0.01
aF-0.04
aF-0.08
aF0.009999999999999998
aF0.0
aF-0.05
aF0.23999999999999996
aF0.0
aF-0.02
aF-0.05
aF0.0
aF0.03
aF-0.05
aF0.0
aF-0.01
aF-0.01
aF0.0
aF-0.020000000000000004
aF0.0
aF0.010000000000000007
aF0.06
aF-0.01
aF0.0
aF0.04
aF0.04
aF0.01
aF-0.02
aF0.03
aF-0.01
aF0.0
aF0.0
aF-0.02
aF-0.03
aF-0.09000000000000001
aF0.04
aF0.02
aF-0.11999999999999998
aF0.0
aF0.0
aF-0.05
aF-0.01
aF0.1
aF0.0
aF0.1
aF0.09
aF-0.01
aF0.0
aF-0.04
aF-0.02
aF-0.04
aF-0.09
aF-0.01
aF0.0
aF0.0
aF0.0
aF-0.05
aF0.02
aF-0.02
aF0.0
aF0.0
aF-0.04
aF0.0
aF-0.02
aF-0.02
aF0.05
aF0.02
aF0.0
aF0.0
aF0.0
aF0.11000000000000001
aF0.08
aF-0.02
aF0.0
aF0.0
aF0.0
aF-0.04
aF-0.03
aF-0.02
aF0.0
aF-0.03
aF-0.02
aF-0.04
aF0.0
aF-0.02
aF0.0
aF0.10999999999999999
aF-0.02
aF0.01
aF0.1
aF-0.01
aF-0.02
aF0.11999999999999998
aF0.1
aF0.01
aF0.04
aF0.0
aF-0.02
aF0.17000000000000004
aF-0.14
aF-0.02
aF0.01
aF0.03
aF-0.04
aF-0.02
aF-0.02
aF0.14
aF-0.04
aF0.0
aF-0.02
aF-0.01
aF-0.02
aF0.0
aF0.0
aF0.0
aF0.0
aF-0.01
aF-0.01
aF-0.08
aF-0.01
aF0.0
aF0.08
aF0.0
aF0.0
aF0.0
aF-0.09000000000000001
aF-0.060000000000000005
aF-0.01
aF0.09
aF-0.06
aF-0.01
aF-0.2500000000000001
aF0.08
aF0.08
aF0.09000000000000001
aF0.08
aF0.05
aF0.08
aF0.08
aF-0.02
aF0.0
aF-0.06999999999999999
aF-0.060000000000000005
aF-0.02
aF-0.01
aF-0.01
aF-0.01
aF-0.01
aF0.13
aF0.15999999999999998
aF0.05
aF0.0
aF-0.04
aF0.16999999999999998
aF-0.2400000000000001
aF0.08
aF0.16
aF0.11
aF0.04999999999999999
aF0.0
aF0.0
aF0.0
aF-0.02
aF-0.01
aF0.0
aF0.0
aF-0.21000000000000002
aF-0.03
aF-0.06
aF-0.01
aF-0.04
aF0.32999999999999996
aF0.0
aF0.029999999999999995
aF0.0
aF-0.08
aF-0.04
aF-0.03
aF-0.02
aF0.24000000000000002
aF-0.02
aF-0.02
aF0.0
aF-0.04
aF0.01
aF0.0
aF-0.03
aF-0.12
aF-0.02
aF0.0
aF-0.05
aF0.01
aF0.0
aF-0.01
aF-0.02
aF-0.01
aF0.44000000000000017
aF-0.10999999999999999
aF-0.02
aF-0.02
aF-0.09
aF-0.02
aF-0.03
aF-0.02
aF0.0
aF0.22999999999999998
aF0.0
aF-0.01
aF0.04
aF0.05
aF0.0
aF0.01
aF0.01
aF-0.07
aF-0.01
aF0.10999999999999999
aF-0.15
aF-0.06
aF-0.01
aF-0.03
aF0.01
aF-0.01
aF-0.02
aF0.01
aF-0.01
aF-0.01
aF0.20999999999999996
aF0.0
aF-0.02
aF-0.04
aF0.0
aF0.0
aF0.0
aF0.08
aF-0.01
aF0.0
aF-0.05
aF-0.03
aF0.01
aF-0.07
aF-0.02
aF-0.03
aF-0.02
aF-0.02
aF0.02
aF0.08
aF-0.03
aF0.0
aF0.0
aF-0.02
aF-0.02
aF0.0
aF0.0
aF0.0
aF0.0
aF0.02
aF-0.019999999999999997
aF0.0
aF-0.01
aF-0.01
aF-0.02
aF-0.04
aF0.01
aF-0.03
aF0.0
aF0.0
aF0.0
aF-0.04
aF0.12
aF0.01
aF0.05
aF0.02
aF-0.02
aF-0.01
aF0.01
aF-0.04
aF-0.05
aF0.11000000000000001
aF0.02
aF0.04
aF-0.03
aF0.51
aF-0.02
aF-0.01
aF-0.02
aF0.0
aF0.18000000000000002
aF-0.03
aF0.09
aF0.060000000000000005
aF-0.02
aF-0.08
aF-0.04
aF0.26000000000000006
aF-0.01
aF-0.01
aF-0.02
aF0.0
aF0.0
aF0.0
aF0.02
aF-3.469446951953614e-18
aF0.03
aF-0.02
aF0.02
aF-0.07000000000000002
aF-0.03
aF0.0
aF0.08
aF-0.05
aF0.0
aF-0.04
aF-0.01
aF-0.03
aF-0.03
aF-0.03
aF-0.02
aF-0.02
aF0.0
aF-0.01
aF-0.02
aF-0.02
aF-0.01
aF-0.01
aF0.0
aF-0.02
aF0.0
aF-0.02
aF0.0
aF0.0
aF0.060000000000000005
aF0.0
aF-0.03
aF0.0
aF0.0
aF0.08
aF0.0
aF0.0
aF-0.03
aF0.03
aF-0.02
aF0.05
aF0.2900000000000001
aF-0.01
aF-0.07
aF-0.01
aF0.08
aF-0.06
aF0.029999999999999992
aF0.0
aF0.02
aF0.02
aF-0.01
aF0.0
aF0.049999999999999996
aF-0.03
aF-0.03
aF0.01
aF0.03
aF0.0
aF0.0
aF-0.04
aF-0.04
aF0.03
aF0.0
aF0.06
aF-0.04
aF-0.04
aF0.04
aF0.0
aF-0.01
aF-0.01
aF-0.03
aF-0.03
aF-0.03
aF0.20000000000000004
aF-0.01
aF0.0
aF0.0
aF-0.01
aF-0.04
aF-0.04
aF0.0
aF-0.03
aF-0.09999999999999999
aF0.0
aF0.0
aF-0.01
aF-0.02
aF0.0
aF-0.01
aF-0.01
aF-0.02
aF-0.08
aF0.0
aF0.0
aF0.04
aF-0.01
aF0.0
aF0.08
aF0.02
aF0.08
aF-0.02
aF0.0
aF-0.03
aF-0.02
aF0.08
aF-0.02
aF0.03
aF0.2
aF0.0
aF0.0
aF-0.08
aF0.0
aF0.0
aF-0.02
aF-0.03
aF-0.01
aF-0.07
aF-0.009999999999999997
aF-0.02
aF-0.03
aF-0.01
aF0.0
aF-0.01
aF0.12
aF0.0
aF0.0
aF0.0
aF-0.02
aF0.08
aF-0.02
aF0.0
aF0.12
aF-0.04
aF-0.02
aF0.08
aF0.08
aF0.11000000000000001
aF0.0
aF0.0
aF-0.01
aF0.0
aF0.0
aF0.0
aF0.01
aF-0.02
aF-0.02
aF0.0
aF-0.01
aF-0.03
aF-0.03
aF0.04
aF-0.03
aF-0.26
aF0.02
aF-0.02
aF-0.01
aF-0.09
aF-0.01
aF0.02
aF-0.13
aF-0.01
aF-0.01
aF0.01
aF-0.01
aF0.03
aF-0.049999999999999996
aF-0.02
aF-0.12
aF0.0
aF-0.02
aF-0.02
aF-0.02
aF0.01
aF0.0
aF-0.12
aF0.0
aF0.1
aF-0.02
aF-0.19
aF-0.03
aF-0.03
aF0.0
aF0.0
aF-0.01
aF-0.02
aF-0.07
aF0.03
aF0.0
aF0.01
aF-0.02
aF-0.02
aF0.01
aF0.23000000000000007
aF-0.02
aF0.0
aF-0.01
aF-0.02
aF-0.02
aF-0.03
aF0.02
aF0.03
aF-0.03
aF-0.02
aF0.3400000000000002
aF-0.02
aF-0.04
aF0.28
aF-0.01
aF0.0
aF-0.01
aF0.0
aF-0.060000000000000005
aF0.0
aF-0.12999999999999998
aF3.469446951953614e-18
aF0.03
aF0.07
aF0.03
aF-0.02
aF-0.22999999999999998
aF0.07
aF0.8400000000000003
aF0.03
aF-0.03
aF0.0
aF0.01
aF-0.04
aF-0.009999999999999997
aF0.11
aF-0.01
aF0.0
aF-0.02
aF-0.01
aF-0.02
aF-0.03
aF0.11999999999999998
aF-0.08
aF-0.01
aF0.0
aF-0.01
aF-0.04
aF-0.04
aF0.0
aF0.0
aF0.0
aF0.02
aF0.0
aF0.01
aF-0.02
aF0.05
aF-0.05
aF0.04
aF0.0
aF0.10000000000000003
aF0.0
aF0.0
aF-0.01
aF-0.01
aF-0.03
aF-0.04
aF-0.14
aF-0.02
aF0.02
aF0.01
aF-0.02
aF0.15
aF0.0
aF0.0
aF0.06
aF-0.07
aF0.14
aF0.0
aF-0.01
aF0.04
aF0.0
aF-0.11999999999999998
aF-0.11000000000000001
aF0.08
aF0.08
aF-0.05
aF-0.02
aF-0.02
aF0.13999999999999999
aF0.0
aF-0.04
aF0.0
aF-0.06
aF0.0
aF-0.01
aF-0.03
aF0.08
aF-0.01
aF-0.009999999999999997
aF0.0
aF0.08
aF-0.08999999999999998
aF-0.03
aF3.469446951953614e-18
aF-0.01
aF-0.02
aF-0.01
aF0.12
aF-0.04
aF0.0
aF-0.01
aF0.0
aF-0.01
aF-0.01
aF0.05
aF0.0
aF-0.03
aF0.02
aF0.01
aF-0.12000000000000001
aF-0.01
aF0.0
aF0.08
aF0.0
aF0.11000000000000001
aF-0.02
aF0.09000000000000001
aF0.02
aF0.05
aF0.04
aF0.13
aF-0.01
aF-0.02
aF-0.019999999999999997
aF-0.04
aF-0.08
aF0.01
aF0.0
aF0.02
aF0.0
aF0.5299999999999976
aF-0.02
aF0.0
aF-0.01
aF-0.01
aF-0.02
aF0.0
aF0.0
aF-0.01
aF-0.02
aF0.02
aF0.16
aF-0.01
aF0.0
aF0.2
aF-0.060000000000000005
aF1.0408340855860843e-17
aF0.0
aF0.04
aF-0.01
aF-0.08
aF-0.02
aF0.09
aF-0.03
aF0.0
aF-0.06
aF0.0
aF0.060000000000000005
aF0.0
aF0.0
aF0.0
aF0.18000000000000008
aF0.04
aF0.12
aF0.0
aF0.060000000000000005
aF0.019999999999999997
aF-0.01
aF0.03
aF-0.04
aF0.0
aF0.0
aF-0.04
aF0.0
aF-0.03
aF-0.01
aF-0.07
aF-0.02
aF0.0
aF0.0
aF-0.01
aF0.04
aF-0.01
aF-0.03
aF0.0
aF-0.04
aF0.02
aF0.02
aF0.03
aF0.0
aF-0.04
aF0.0
aF0.08
aF0.12
aF-0.07
aF-0.42000000000000015
aF-0.01
aF-0.060000000000000005
aF0.0
aF-0.02
aF-0.06
aF0.03
aF-0.07
aF-0.02
aF-0.05
aF-0.06999999999999997
aF-0.019999999999999997
aF0.0
aF0.0
aF-0.08
aF0.0
aF-0.02
aF0.0
aF-0.04
aF0.0
aF-0.18000000000000002
aF0.01
aF0.01
aF-0.01
aF0.0
aF0.04
aF0.0
aF-0.02
aF0.05
aF-1.734723475976807e-18
aF-0.03
aF0.15
aF-0.01
aF0.09000000000000001
aF-0.08
aF0.0
aF0.06
aF0.07
aF-0.02
aF-0.02
aF0.02
aF-0.03
aF0.0
aF0.0
aF-0.01
aF0.060000000000000005
aF0.0
aF0.0
aF0.0
aF0.0
aF0.0
aF-0.03
aF0.03
aF0.01
aF0.03
aF0.0
aF0.0
aF-0.01
aF0.03
aF0.12
aF-0.03
aF0.02
aF-0.02
aF0.0
aF0.04
aF0.0
aF-0.02
aF-0.02
aF0.0
aF-0.029999999999999992
aF-0.07
aF0.0
aF-0.04
aF-0.01
aF-0.04
aF0.10999999999999999
aF-0.01
aF0.0
aF-0.01
aF0.05
aF-0.03
aF0.0
aF0.0
aF-0.01
aF0.0
aF-0.02
aF-0.31999999999999995
aF0.5400000000000003
aF-0.01
aF-0.01
aF-0.04
aF-0.03
aF-0.03
aF-0.019999999999999997
aF0.0
aF0.01
aF-0.42000000000000015
aF-0.03
aF-0.02
aF-0.04
aF-0.060000000000000005
aF-0.02
aF0.04
aF0.0
aF-0.01
aF0.0
aF-0.09
aF-0.12
aF0.0
aF-0.01
aF-0.03
aF0.0
aF-0.15999999999999998
aF0.0
aF0.0
aF0.0
aF0.0
aF-0.12
aF0.1
aF0.0
aF-0.02
aF-0.04
aF0.01
aF0.02
aF-0.07
aF-0.12000000000000004
aF0.0
aF0.0
aF-0.01
aF0.04
aF0.0
aF-0.01
aF0.019999999999999997
aF0.0
aF-0.02
aF0.02
aF0.0
aF0.08
aF-0.2
aF0.04
aF0.0
aF0.03
aF-0.03
aF-0.02
aF0.2
aF-0.04
aF0.05
aF0.0
aF0.14
aF0.04
aF0.05
aF-0.060000000000000005
aF0.060000000000000005
aF0.14
aF0.13
aF-0.060000000000000005
aF0.0
aF0.12999999999999998
aF0.0
aF0.0
aF0.0
aF-0.02
aF0.07
aF0.0
aF-0.09
aF0.0
aF0.16
aF0.0
aF-0.04
aF0.0
aF-0.07
aF0.06
aF0.03
aF0.05
aF0.03
aF0.01
aF-0.04
aF-0.01
aF-0.03
aF-0.02
aF-0.04
aF0.0
aF-0.06
aF-0.02
aF0.08
aF0.02
aF0.02
aF0.02
aF0.03
aF-0.060000000000000005
aF0.0
aF0.05
aF0.0
aF0.0
aF0.0
aF-0.01
aF0.0
aF0.08
aF0.08
aF0.0
aF0.12000000000000001
aF0.0
aF0.08
aF-1.2699999999999987
aF-0.02
aF-0.10999999999999999
aF-0.03
aF0.0
aF-0.01
aF0.04
aF-0.010000000000000018
aF0.01999999999999999
aF0.0
aF0.0
aF-0.19
aF-0.01
aF-0.02
aF0.0
aF0.0
aF0.01
aF0.0
aF-0.04
aF-0.01
aF-0.02
aF0.09
aF0.18
aF-0.02
aF0.03
aF-0.02
aF-0.02
aF-0.060000000000000005
aF-0.01
aF-0.02
aF0.04
aF0.0
aF0.0
aF0.21000000000000002
aF-0.01
aF-0.01
aF0.01
aF-0.02
aF0.01
aF0.0
aF-0.060000000000000005
aF-0.01
aF0.0
aF-0.01
aF0.02
aF-0.02
aF0.0
aF0.0
aF0.0
aF0.0
aF-0.02
aF0.0
aF0.03
aF-0.16
aF-0.02
aF-0.03
aF-0.05
aF0.0
aF-0.01
aF-0.02
aF0.0
aF-0.01
aF-0.06
aF-0.13999999999999999
aF-0.04
aF0.07
aF-0.07
aF-0.01
aF0.0
aF0.0
aF0.0
aF0.08
aF0.0
aF0.0
aF-0.7100000000000002
aF-0.02
aF-0.05
aF-0.01
aF-0.04
aF-0.07999999999999999
aF0.02
aF-0.02
aF0.0
aF-0.30000000000000004
aF0.0
aF-0.04
aF0.0
aF-0.04
aF-0.08
aF-0.03
aF0.08
aF0.01
aF0.08
aF-0.05
aF-0.05
aF0.0
aF0.010000000000000004
aF-0.01
aF-0.02
aF-0.01
aF-0.01
aF-0.02
aF-0.1
aF-0.009999999999999997
aF0.05
aF-0.01
aF0.04
aF-0.04
aF-0.06999999999999999
aF-0.05
aF-0.09
aF0.03
aF0.08
aF-0.11999999999999998
aF0.0
aF-0.03
aF-0.04
aF0.02
aF0.05
aF0.0
aF0.02
aF0.0
aF0.0
aF0.0
aF-0.03
aF0.01
aF-0.3900000000000002
aF-0.07
aF-0.01
aF0.0
aF-0.01
aF-0.05
aF-0.05
aF-0.01
aF0.0
aF0.4000000000000002
aF0.0
aF-0.02
aF-0.08
aF-0.01
aF-0.01
aF0.01
aF0.17
aF0.07
aF0.01
aF0.04
aF0.0
aF-0.06
aF0.0
aF-0.03
aF-0.02
aF0.0
aF0.01
aF-0.03
aF0.0
aF-0.02
aF0.0
aF0.0
aF-0.03
aF0.0
aF0.10999999999999999
aF0.0
aF0.0
aF0.04
aF-0.4800000000000002
aF0.0
aF-0.02
aF-0.01
aF0.0
aF0.0
aF-0.01
aF-0.04
aF-0.01
aF0.0
aF-0.01
aF0.0
aF0.0
aF0.05
aF-0.02
aF0.01
aF0.03
aF0.0
aF0.01
aF-0.04
aF0.0
aF0.0
aF0.0
aF0.0
aF0.37000000000000016
aF0.01
aF0.02
aF0.0
aF-0.010000000000000004
aF0.16
aF0.06
aF0.04
aF0.10999999999999999
aF0.0
aF-0.03
aF0.0
aF-0.060000000000000005
aF0.14
aF-0.03
aF-0.08
aF0.01
aF0.0
aF0.020000000000000004
aF-0.01
aF0.22000000000000003
aF0.08
aF-0.08
aF0.03
aF0.0
aF0.0
aF0.0
aF-0.01
aF0.15
aF0.02
aF-0.01
aF0.0
aF0.08
aF-0.02
aF0.0
aF-0.01
aF-0.02
aF-0.02
aF0.01
aF0.01
aF0.0
aF0.5099999999999999
aF0.020000000000000004
aF0.02
aF0.04
aF-0.56
aF0.0
aF0.0
aF0.08
aF0.02
aF-0.02
aF0.01
aF0.0
aF0.0
aF-0.03
aF0.0
aF0.0
aF-0.09999999999999999
aF-0.24000000000000013
aF-0.01
aF0.09
aF-0.03
aF-0.01
aF0.060000000000000005
aF0.15999999999999998
aF0.15000000000000002
aF-0.060000000000000005
aF0.05
aF-0.04
aF-0.020000000000000004
aF0.02
aF0.0
aF-0.07
aF0.03
aF-0.01
aF-0.01
aF-0.03
aF-0.010000000000000004
aF-0.03
aF1.1500000000000008
aF0.2
aF0.04
aF0.0
aF-0.05
aF0.0
aF-0.01
aF-0.03
aF-0.01
aF-0.01
aF0.0
aF0.0
aF-0.02
aF-0.02
aF0.12
aF-0.02
aF0.04
aF0.09000000000000002
aF-0.04
aF0.0
aF-0.02
aF0.23000000000000004
aF0.01
aF-0.03
aF-0.03
aF-0.01
aF-0.06999999999999999
aF-0.02
aF-0.02
aF0.0
aF0.0
aF0.0
aF-0.05
aF0.019999999999999997
aF-0.02
aF-0.03
aF0.04
aF-0.05
aF-0.02
aF0.0
aF0.0
aF-0.01
aF0.0
aF-0.02
aF0.0
aF0.03
aF0.03
aF-0.06999999999999999
aF-0.05
aF0.04
aF0.02
aF0.0
aF0.0
aF-0.02
aF0.06999999999999999
aF-0.02
aF-0.02
aF-0.05
aF-0.060000000000000005
aF0.0
aF-0.060000000000000005
aF-0.060000000000000005
aF-0.01
aF0.05
aF0.4200000000000001
aF0.060000000000000005
aF0.06
aF0.019999999999999997
aF0.02
aF0.0
aF-0.01
aF0.0
aF0.0
aF0.0
aF0.8099999999999994
aF0.0
aF0.0
aF0.05
aF0.060000000000000005
aF0.0
aF0.0
aF0.0
aF0.02
aF-0.019999999999999997
aF-0.05
aF0.05000000000000001
aF0.01
aF0.0
aF-0.04000000000000001
aF0.04
aF-0.01
aF-0.03
aF0.05
aF-0.05
aF0.0
aF0.0
aF-0.060000000000000005
aF0.0
aF0.0
aF0.04
aF0.29999999999999993
aF0.0
aF-0.04
aF-0.01
aF0.0
aF-0.01
aF-0.04
aF0.06
aF-0.03
aF0.0
aF0.02
aF-0.05
aF0.0
aF0.0
aF-0.02
aF0.0
aF-0.01
aF0.0
aF-0.04
aF0.06
aF-0.02
aF0.0
aF-0.02
aF0.07
aF-0.05
aF-0.09999999999999999
aF-0.01
aF0.0
aF0.0
aF0.0
aF0.02
aF-0.02
aF0.0
aF-0.04
aF0.01
aF0.36
aF0.0
aF0.08
aF0.10999999999999999
aF0.04
aF0.08
aF-0.01
aF-0.04
aF0.03
aF-0.01
aF-0.01
aF-0.04
aF-0.01
aF0.0
aF0.0
aF0.3000000000000001
aF-0.01
aF0.0
aF0.060000000000000005
aF-0.10999999999999999
aF-0.04
aF-0.02
aF-0.009999999999999997
aF0.04
aF-0.01
aF-0.01
aF0.0
aF-0.060000000000000005
aF-0.02
aF0.0
aF-0.02
aF0.04
aF-0.28
aF-0.04
aF0.0
aF-0.04
aF0.0
aF0.0
aF-0.01
aF-0.060000000000000005
aF-0.01
aF0.02
aF0.06999999999999999
aF3.249999999999979
aF-0.01
aF-0.03
aF0.0
aF0.06
aF0.060000000000000005
aF0.0
aF0.0
aF-0.02
aF0.0
aF0.0
aF-0.01
aF0.0
aF0.0
aF0.0
aF0.04
aF0.08
aF-0.05
aF0.060000000000000005
aF-0.03
aF0.0
aF-0.04
aF0.0
aF0.02
aF-0.07
aF0.0
aF-0.03
aF0.0
aF0.01
aF-0.01
aF-0.01
aF0.009999999999999903
aF-0.02
aF-0.02
aF-0.06999999999999999
aF-0.04
aF-0.04
aF0.8100000000000004
aF1.1800000000000008
aF-0.01
aF0.0
aF-0.02
aF0.02
aF-0.01
aF0.0
aF0.06
aF0.21999999999999997
aF-0.01
aF0.07
aF-0.01
aF-0.02
aF0.0
aF-0.04
aF0.08
aF-0.01
aF0.01
aF-0.07
aF0.04
aF-0.01
aF-0.02
aF0.01
aF-0.15000000000000002
aF0.02
aF0.0
aF-0.01
aF0.0
aF0.03
aF0.0
aF-0.01
aF-0.02
aF0.0
aF0.22000000000000006
aF-0.01
aF0.08
aF-0.03
aF0.0
aF-0.08
aF-0.03
aF-0.04
aF-0.009999999999999993
aF-0.010000000000000004
aF0.0
aF0.06
aF0.0
aF0.02
aF-0.02
aF0.04
aF-0.05
aF0.07
aF-0.019999999999999997
aF0.15
aF0.0
aF0.0
aF0.0
aF0.04
aF-0.01
aF-0.02
aF-0.09
aF0.0
aF0.01
aF-0.03
aF-0.06
aF0.039999999999999994
aF-0.4500000000000001
aF-0.03
aF0.0
aF-0.02
aF-0.01
aF-0.03
aF0.0
aF0.0
aF-0.01
aF0.09
aF0.060000000000000005
aF0.0
aF0.0
aF-0.01
aF0.03
aF-0.04
aF-0.05
aF-0.02
aF0.01
aF0.0
aF-0.01
aF-0.3200000000000001
aF-0.02
aF0.0
aF-0.02
aF0.21999999999999997
aF0.01
aF-0.03
aF0.01
aF-0.03
aF-0.06
aF0.08
aF-0.11000000000000001
aF0.02
aF0.0
aF-0.03
aF0.05
aF-0.01
aF0.0
aF0.05
aF-0.01
aF0.08
aF-0.12000000000000001
aF-0.06
aF-0.02
aF0.03
aF-0.09999999999999999
aF0.0
aF0.18
aF-0.04
aF0.02
aF0.0
aF-0.01
aF-0.01
aF-0.02
aF0.0
aF0.02
aF0.03
aF0.10999999999999997
aF-0.02
aF0.0
aF-0.01
aF0.0
aF0.26
aF-0.060000000000000005
aF0.0
aF0.02
aF-0.02
aF0.060000000000000005
aF-0.06
aF-0.02
aF0.060000000000000005
aF0.01
aF-0.01
aF0.0
aF0.07
aF0.0
aF0.08
aF-0.03
aF-0.02
aF-0.11999999999999998
aF0.03
aF0.04
aF-0.05
aF0.17000000000000004
aF0.0
aF-0.02
aF0.02
aF-0.02
aF0.15000000000000002
aF0.21000000000000008
aF0.02
aF1.0408340855860843e-17
aF0.09999999999999998
aF-0.01
aF-0.060000000000000005
aF-0.01
aF0.05
aF-0.02
aF0.0
aF0.39000000000000007
aF-0.02
aF0.0
aF0.01
aF0.0
aF-0.01
aF0.019999999999999997
aF0.0
aF0.0
aF0.0
aF0.01
aF0.01
aF-0.03
aF0.019999999999999997
aF0.0
aF-0.02
aF0.13
aF0.05
aF0.0
aF0.0
aF0.0
aF-0.01
aF0.0
aF0.0
aF-0.21000000000000002
aF0.10999999999999999
aF0.22
aF0.01
aF0.0
aF0.0
aF0.08
aF0.0
aF-0.02
aF0.0
aF0.12
aF-0.01
aF0.12000000000000001
aF-0.02
aF0.17
aF-0.06999999999999999
aF-0.05
aF0.0
aF-0.02
aF0.0
aF-0.03
aF-0.05
aF-0.02
aF-0.04
aF-0.04
aF-0.01
aF0.0
aF-0.06
aF0.0
aF0.02
aF0.0
aF0.0
aF0.0
aF0.0
aF0.0
aF-0.01
aF-0.2900000000000001
aF0.0
aF0.03
aF-0.01
aF3.469446951953614e-18
aF-0.01
aF-0.03
aF0.24
aF-0.04
aF0.03
aF0.0
aF-0.03
aF0.02
aF0.0
aF-0.01
aF-0.02
aF-0.02
aF0.26
aF0.0
aF-0.02
aF-0.09999999999999999
aF-0.04
aF0.0
aF0.07
aF0.02
aF-0.02
aF0.03
aF-0.07
aF0.0
aF0.0
aF-0.01
aF0.14999999999999994
aF-0.02
aF0.05
aF-0.01
aF0.03
aF0.0
aF-0.08
aF0.04
aF0.0
aF0.0
aF0.08
aF0.0
aF0.0
aF-0.05
aF0.0
aF0.0
aF-0.03
aF-0.02
aF-0.01
aF-0.01
aF0.04
aF-0.03
aF-0.04
aF0.0
aF-0.02
aF0.01
aF-0.04
aF0.0
aF-0.01
aF0.06
aF0.0
aF0.02
aF0.0
aF0.0
aF0.0
aF-0.01
aF0.0
aF0.04000000000000001
aF0.14
aF0.0
aF0.02
aF-0.020000000000000004
aF-0.04999999999999999
aF-0.03
aF0.01
aF0.10999999999999999
aF0.12999999999999998
aF-0.03
aF-0.03
aF0.06
aF-0.03
aF0.16000000000000003
aF-0.08
aF-0.02
aF-0.11999999999999998
aF0.0
aF-0.01
aF-0.08
aF0.0
aF-0.02
aF0.04
aF0.0
aF0.0
aF0.0
aF0.030000000000000006
aF-0.01
aF0.0
aF0.0
aF-0.01
aF-0.01
aF0.009999999999999997
aF0.019999999999999997
aF-0.019999999999999997
aF-0.02
aF-0.02
aF-0.02
aF0.0
aF-0.02
aF-0.03
aF-0.02
aF-0.03
aF-0.01
aF0.1
aF0.01
aF-0.02
aF-0.01
aF0.09
aF-0.1
aF0.0
aF-0.11000000000000001
aF0.0
aF-0.03
aF0.060000000000000005
aF0.03
aF-0.01
aF-0.13
aF-0.01
aF-0.01
aF0.16
aF0.03
aF0.07
aF-0.01
aF-0.02
aF-0.060000000000000005
aF0.0
aF-0.06
aF0.0
aF-0.04
aF0.12999999999999998
aF-0.03
aF-0.03
aF-0.03
aF0.08
aF-0.09999999999999999
aF0.0
aF0.08
aF0.01
aF-0.01
aF0.12
aF-0.01
aF0.04
aF-0.01
aF0.0
aF0.09
aF0.03
aF0.0
aF0.0
aF0.0
aF0.060000000000000005
aF-0.01
aF-0.01
aF0.0
aF0.16
aF-0.06999999999999999
aF-0.060000000000000005
aF0.0
aF-0.02
aF0.0
aF0.12000000000000001
aF0.38
aF-0.03
aF-0.03
aF0.03
aF0.060000000000000005
aF-0.02
aF-0.01
aF-0.01
aF0.0
aF0.02
aF0.0
aF0.0
aF-0.02
aF-0.02
aF0.08
aF0.05
aF-0.09
aF0.08
aF0.0
aF0.04
aF0.03
aF0.12
aF-0.01
aF0.16
aF0.13999999999999999
aF-0.01
aF-0.05
aF0.0
aF0.06
aF0.08
aF-0.01
aF-0.24000000000000007
aF-0.01
aF0.04
aF0.19000000000000003
aF-0.10999999999999999
aF-0.39
aF0.0
aF0.02
aF0.04
aF0.0
aF0.03
aF-0.01
aF0.0
aF0.0
aF-0.01
aF-0.01
aF-0.019999999999999997
aF0.0
aF0.0
aF-0.04
aF0.0
aF-0.02
aF0.0
aF-0.03
aF-0.01
aF-0.02
aF-0.01
aF-0.02
aF0.01
aF0.0
aF0.060000000000000005
aF0.07
aF0.0
aF0.0
aF-0.01
aF0.0
aF-0.060000000000000005
aF-0.02
aF-0.02
aF0.09999999999999999
aF-0.02
aF0.0
aF-0.04
aF0.02
aF-0.01
aF-0.05000000000000003
aF0.02
aF0.0
aF-0.01
aF0.0
aF-0.03
aF-0.02
aF0.02
aF0.08
aF0.0
aF-0.01
aF-0.02
aF-0.02
aF-0.17000000000000004
aF0.01
aF0.0
aF-0.08
aF-0.01
aF-0.02
aF-0.02
aF-0.04
aF0.0
aF-0.01
aF0.0
aF0.0
aF-0.02
aF-0.02
aF-0.04
aF-0.01
aF-0.03
aF0.09999999999999999
aF0.0
aF-0.02
aF-0.12999999999999998
aF-0.07
aF0.0
aF0.05
aF-0.07
aF0.04
aF-0.02
aF-0.03
aF0.0
aF-0.02
aF-0.060000000000000005
aF-0.04
aF-0.02
aF0.0
aF-0.04
aF0.15
aF0.0
aF-0.01
aF0.01
aF-0.01
aF0.3999999999999998
aF0.0
aF-0.01
aF0.01
aF0.0
aF-0.03
aF0.0
aF0.02
aF-0.04
aF0.0
aF0.1
aF0.0
aF0.0
aF-0.40000000000000013
aF-0.05
aF0.14
aF-0.02
aF0.0
aF-0.07
aF0.02
aF-0.01
aF0.0
aF-0.060000000000000005
aF-0.01
aF-0.02
aF0.01
aF0.03
aF-0.01
aF0.0
aF0.05
aF0.07999999999999999
aF0.09999999999999999
aF0.02
aF-0.05
aF0.0
aF-0.02
aF-0.03
aF0.01
aF-0.01
aF-0.01
aF0.01
aF-0.02
aF-0.01
aF0.0
aF-0.03
aF0.0
aF-0.01
aF-0.02
aF0.0
aF0.0
aF-0.01
aF0.0
aF-0.039999999999999994
aF0.07
aF-0.01
aF0.0
aF-0.01
aF-0.01
aF-0.02
aF-0.01
aF0.17999999999999997
aF-0.04
aF0.0
aF0.04
aF0.03
aF0.0
aF-0.09999999999999998
aF-0.01
aF-0.01
aF0.0
aF0.0
aF0.0
aF0.01
aF0.3800000000000001
aF-0.01
aF0.01
aF0.11999999999999997
aF-0.02
aF0.0
aF0.0
aF-0.02
aF0.02
aF0.0
aF-0.02
aF0.01
aF0.01
aF-0.02
aF-0.1
aF-0.01
aF0.04
aF-0.02
aF-0.03
aF0.0
aF-0.02
aF0.0
aF0.02
aF-0.01
aF-0.02
aF-0.01
aF-0.05999999999999999
aF0.0
aF-0.04
aF0.019999999999999997
aF-0.11
aF-0.01
aF0.0
aF-0.2
aF-0.04999999999999993
aF0.29
aF-0.03
aF-0.05
aF0.0
aF-0.01
aF-0.01
aF-0.03
aF-0.05
aF-0.060000000000000005
aF0.030000000000000006
aF-0.03
aF0.0
aF-0.03
aF-0.03
aF0.04
aF-0.03
aF0.019999999999999997
aF0.45000000000000023
aF-0.02
aF-0.01
aF0.0
aF0.0
aF-0.05
aF0.0
aF0.0
aF0.02
aF0.08
aF0.12
aF0.0
aF0.0
aF0.0
aF-0.07
aF-0.03
aF-0.01
aF-0.04
aF0.0
aF0.0
aF-0.04
aF-0.04
aF-0.01
aF-0.01
aF0.0
aF-0.039999999999999994
aF0.0
aF-0.04
aF-0.01
aF-0.04
aF0.8600000000000005
aF-0.02
aF-0.049999999999999996
aF0.0
aF-0.060000000000000005
aF0.01
aF0.01
aF0.0
aF0.0
aF-0.04
aF0.0
aF-0.05
aF-0.060000000000000005
aF0.09
aF-0.04
aF0.03
aF-0.01
aF-0.07
aF0.1
aF-0.02
aF0.07
aF0.36
aF-0.03
aF-0.01
aF0.3
aF0.01
aF-0.01
aF0.16999999999999998
aF-0.04
aF0.03
aF-0.11000000000000001
aF0.0
aF0.0
aF-0.02
aF0.0
aF-0.060000000000000005
aF-0.01
aF0.0
aF0.0
aF-0.02
aF-0.27
aF3.469446951953614e-18
aF-0.02
aF0.0
aF0.0
aF0.0
aF-0.3600000000000001
aF0.0
aF-0.09999999999999999
aF0.0
aF-0.01
aF-0.04
aF-0.01
aF0.9800000000000004
aF0.030000000000000002
aF0.060000000000000005
aF-0.04
aF0.0
aF-0.01
aF-0.01
aF-0.02
aF0.20000000000000004
aF0.0
aF0.04000000000000001
aF-0.02
aF0.0
aF0.0
aF0.13999999999999999
aF0.0
aF-0.18000000000000002
aF0.04
aF-0.09
aF-0.01
aF-0.01
aF-0.02
aF0.05
aF0.060000000000000005
aF-0.08
aF0.0
aF0.0
aF0.05999999999999999
aF-0.02
aF0.11999999999999998
aF0.0
aF-0.02
aF-0.01
aF0.0
aF0.07
aF0.0
aF0.0
aF-0.03
aF0.0
aF0.09
aF-0.03
aF0.02
aF-0.060000000000000005
aF0.09
aF0.0
aF-0.13999999999999999
aF0.060000000000000005
aF0.0
aF-0.01
aF0.02
aF0.10999999999999999
aF0.05
aF-0.02
aF0.0
aF0.0
aF0.24
aF0.0
aF0.0
aF0.0
aF0.25
aF0.0
aF0.060000000000000005
aF-0.02
aF-0.01999999999999999
aF0.02
aF-0.05
aF-0.02
aF0.6600000000000004
aF0.0
aF0.0
aF0.01
aF-0.10999999999999999
aF-0.04
aF0.060000000000000005
aF-0.02
aF-0.02
aF0.0
aF-0.01
aF-0.02
aF-0.02
aF0.020000000000000025
aF-0.04
aF0.01
aF-0.02
aF0.3700000000000001
aF-0.04
aF-0.04
aF-0.01
aF0.0
aF-0.02
aF-0.02
aF-0.019999999999999997
aF-0.04
aF-0.01
aF0.1
aF0.03
aF-0.2700000000000001
aF-0.07
aF0.03
aF-0.02
aF-0.04
aF0.07
aF2.0800000000000023
aF0.0
aF-0.01
aF-0.03
aF0.0
aF-0.02
aF0.0
aF0.18999999999999995
aF0.0
aF-0.039999999999999994
aF0.30000000000000004
aF-0.06999999999999999
aF-0.01
aF-0.01
aF-0.06
aF0.0
aF0.3800000000000001
aF0.02
aF-0.01
aF0.19000000000000003
aF0.09
aF0.0
aF-0.07
aF-0.02
aF-0.03
aF-0.02
aF-0.02
aF-0.01
aF0.01
aF0.060000000000000005
aF-0.02
aF0.0
aF0.0
aF0.25
aF0.03
aF-0.01
aF0.25
aF0.21000000000000005
aF0.0
aF0.0
aF0.060000000000000005
aF0.37
aF0.21000000000000002
aF0.12999999999999998
aF0.10999999999999999
aF0.07
aF0.0
aF-0.01
aF0.0
aF-0.08
aF-0.01
aF-0.07
aF0.11999999999999998
aF0.0
aF-0.02
aF0.0
aF0.0
aF0.10999999999999999
aF0.0
aF0.0
aF0.08
aF0.0
aF0.03
aF0.0
aF0.09000000000000001
aF-0.03
aF0.09000000000000001
aF0.04
aF-0.039999999999999994
aF0.0
aF0.1
aF0.08
aF0.0
aF0.0
aF0.16999999999999998
aF-0.01
aF0.02
aF-0.04
aF0.0
aF0.0
aF-0.03
aF-0.05
aF0.0
aF-0.28
aF-0.01
aF0.09
aF0.03
aF-0.04
aF-0.01
aF0.0
aF-0.02
aF0.0
aF-0.04
aF-0.01
aF0.0
aF0.0
aF0.0
aF-0.05
aF0.04
aF-0.02
aF0.4900000000000001
aF-0.01
aF-0.01
aF-0.02
aF0.0
aF0.0
aF-0.01
aF-0.07999999999999999
aF-0.07
aF0.0
aF-0.03
aF0.0
aF0.0
aF0.0
aF0.03
aF0.05
aF0.04
aF0.12000000000000001
aF0.0
aF-0.06
aF-0.03
aF0.0
aF-0.04
aF-0.01
aF0.0
aF0.05
aF0.02
aF0.0
aF0.0
aF-0.03
aF0.0
aF0.02
aF0.02
aF-0.23000000000000007
aF0.12
aF0.0
aF-0.26000000000000006
aF-0.07999999999999999
aF-0.01
aF-0.02
aF-0.03
aF0.0
aF-0.05
aF-0.03
aF-0.01
aF-0.04
aF-0.02
aF0.02
aF-0.02
aF-0.02
aF-0.04
aF-0.03
aF-0.060000000000000005
aF-0.02
aF0.02
aF-0.03
aF-0.02
aF0.01
aF0.01
aF0.0
aF-0.01
aF0.0
aF-0.10999999999999999
aF-0.08
aF0.0
aF0.02
aF-0.04
aF0.01
aF-0.02
aF-0.03
aF-0.02
aF0.03
aF0.02
aF0.03
aF0.0
aF-0.01
aF0.01
aF0.1
aF0.0
aF0.019999999999999997
aF0.04
aF-0.01
aF-0.05
aF0.0
aF-0.01
aF0.08
aF-0.1
aF0.0
aF0.13999999999999999
aF0.02
aF0.12000000000000001
aF-0.03
aF-0.04
aF-0.06
aF3.469446951953614e-18
aF0.0
aF0.07
aF0.03
aF0.0
aF0.019999999999999997
aF0.060000000000000005
aF-0.01
aF-0.07
aF0.10999999999999997
aF0.060000000000000005
aF-0.02
aF-0.04
aF0.020000000000000004
aF0.0
aF0.0
aF-0.15
aF-0.03
aF0.0
aF-0.01
aF-0.09999999999999999
aF0.0
aF0.0
aF-0.01
aF0.0
aF0.0
aF0.07
aF-0.01
aF0.0
aF-0.03
aF-0.02
aF0.13
aF-0.03
aF0.19000000000000003
aF-0.01
aF0.03
aF-0.02
aF0.20999999999999996
aF-0.24999999999999997
aF-0.02
aF0.0
aF-0.01
aF0.0
aF0.01
aF0.0
aF-0.01
aF0.0
aF-0.02
aF-0.10000000000000002
aF-0.03
aF-0.05
aF-0.01
aF0.0
aF0.0
aF-0.03
aF-0.02
aF-0.03
aF0.0
aF-0.02
aF-0.04000000000000002
aF-0.060000000000000005
aF0.20000000000000004
aF-0.03
aF0.02
aF-0.01
aF-0.05
aF-0.16000000000000003
aF0.04
aF-0.09000000000000001
aF-0.16
aF-0.04
aF0.0
aF0.0
aF-0.01
aF0.0
aF0.0
aF-0.48
aF0.03
aF0.0
aF-0.01
aF0.0
aF-0.01
aF0.0
aF-0.060000000000000005
aF0.0
aF-0.01
aF0.0
aF-0.01
aF0.0
aF-0.07
aF-0.18
aF0.0
aF0.019999999999999997
aF0.0
aF0.0
aF-0.01
aF-0.04
aF0.0
aF0.0
aF0.0
aF0.01
aF0.27999999999999997
aF0.08
aF0.0
aF0.060000000000000005
aF-0.01
aF0.09999999999999999
aF-0.04
aF0.0
aF0.1
aF-0.05
aF0.0
aF-0.01
aF0.0
aF0.0
aF0.02
aF0.0
aF-0.04
aF0.0
aF-0.060000000000000005
aF0.02
aF-0.060000000000000005
aF0.0
aF0.0
aF0.0
aF0.4600000000000002
aF0.0
aF-0.03
aF-0.060000000000000005
aF-0.01
aF-0.03
aF-0.01
aF-0.01
aF-0.03
aF0.0
aF0.22000000000000003
aF-0.01
aF0.08
aF-0.06999999999999999
aF0.020000000000000004
aF-0.07
aF-0.09
aF-0.03
aF0.17
aF0.04
aF0.0
aF-0.019999999999999997
aF-0.15
aF0.02
aF-0.01
aF0.0
aF-0.03
aF0.0
aF-0.09
aF-0.060000000000000005
aF0.0
aF-0.12000000000000001
aF0.060000000000000005
aF0.0
aF0.33
aF0.0
aF-0.01
aF0.0
aF-0.01
aF0.0
aF0.11
aF0.04000000000000001
aF-0.34
aF0.02
aF0.0
aF0.0
aF0.02
aF0.0
aF-0.02
aF0.0
aF0.0
aF0.05
aF0.009999999999999997
aF0.0
aF-0.02
aF-0.05
aF-0.01
aF0.0
aF-0.03
aF0.0
aF-0.01
aF0.04
aF-0.05
aF-0.09999999999999999
aF-0.01
aF0.15999999999999998
aF-0.04
aF-0.08
aF-0.01
aF0.08
aF-0.02
aF0.0
aF0.09
aF0.07
aF0.0
aF-0.01
aF-0.04
aF0.0
aF-0.03
aF0.02
aF0.07999999999999999
aF0.05
aF-0.06
aF0.09
aF-0.02
aF-0.05
aF0.20000000000000004
aF-0.02
aF-0.01
aF0.02
aF-0.01
aF-0.02
aF0.03
aF0.04000000000000001
aF0.04
aF-0.01
aF-0.01
aF-0.09
aF-0.02
aF-0.05
aF0.0
aF-0.01
aF-0.03
aF-0.25999999999999995
aF0.0
aF0.0
aF0.0
aF-0.10999999999999999
aF-0.01
aF0.01
aF-0.02
aF0.17
aF-0.06999999999999999
aF0.0
aF0.01
aF0.04
aF-0.5300000000000001
aF0.04
aF-0.01
aF-0.08999999999999997
aF-0.01
aF-0.06
aF-0.02
aF-0.01
aF-0.02
aF-0.01
aF-0.02
aF-0.01
aF0.1
aF0.0
aF-0.01
aF0.0
aF0.05
aF-0.01
aF-0.02
aF-0.02
aF-0.009999999999999997
aF0.0
aF0.0
aF0.0
aF0.06
aF0.0
aF0.0
aF-0.02
aF-0.02
aF-0.02
aF-0.06
aF0.0
aF0.01
aF0.0
aF0.060000000000000005
aF-0.01
aF-0.01
aF-0.01
aF0.0
aF0.0
aF0.06999999999999999
aF-0.02
aF-0.03
aF0.08
aF-0.05
aF-0.01
aF-0.02
aF-0.060000000000000005
aF-0.04
aF0.05
aF-0.09999999999999999
aF-0.1
aF0.08
aF-0.02
aF0.0
aF0.07
aF-0.06
aF0.0
aF-0.03
aF-0.01
aF0.01
aF-0.05
aF-0.03
aF0.02
aF-0.03
aF-0.02
aF0.0
aF0.05
aF-0.03
aF-0.06
aF-0.12
aF-0.02
aF-0.1
aF0.5400000000000003
aF0.0
aF-0.19
aF0.03
aF0.0
aF0.0
aF0.0
aF0.0
aF-0.03
aF0.0
aF0.0
aF0.04
aF0.0
aF0.0
aF0.0
aF0.08
aF-0.01
aF0.0
aF-0.01
aF0.0
aF0.0
aF0.04
aF0.0
aF0.0
aF-0.03
aF-0.09
aF-0.039999999999999994
aF0.13
aF0.03
aF0.0
aF0.0
aF0.0
aF-0.04
aF-0.01
aF-0.03
aF-0.07
aF-0.02
aF0.13999999999999999
aF0.04
aF-0.04
aF-0.02
aF0.04
aF0.02
aF0.0
aF-0.02
aF-0.02
aF-0.02
aF0.02
aF-0.05
aF0.0
aF-0.01
aF-0.05
aF-0.29
aF0.04
aF0.01999999999999997
aF-0.01
aF-0.060000000000000005
aF0.03
aF0.10999999999999999
aF0.08
aF0.27
aF-0.06
aF-0.04
aF-0.05
aF0.2
aF0.12999999999999998
aF0.31000000000000005
aF0.11
aF-0.05
aF0.07
aF0.0
aF-0.04
aF-0.06
aF0.0
aF0.0
aF-0.01
aF0.03
aF0.12
aF-0.05
aF0.0
aF0.0
aF-0.02
aF0.01
aF-0.03999999999999999
aF0.0
aF0.009999999999999997
aF-0.01
aF-0.01
aF-0.01
aF0.0
aF0.060000000000000005
aF-0.01
aF-0.03
aF-0.03
aF-0.06
aF0.0
aF-0.13
aF-0.03
aF-0.02
aF0.01
aF0.0
aF-0.01
aF-0.02
aF0.0
aF0.03
aF0.01
aF-0.04
aF-0.01
aF-0.04
aF0.0
aF0.0
aF0.0
aF-0.08
aF0.0
aF0.0
aF0.16
aF-0.01
aF0.09
aF0.0
aF0.04
aF0.0
aF-0.02
aF-0.02
aF-0.03
aF0.02
aF-0.08
aF0.0
aF-0.01
aF-0.04999999999999999
aF-0.03
aF-0.060000000000000005
aF0.0
aF0.0
aF-0.08999999999999998
aF0.01
aF-0.04
aF0.0
aF-0.02
aF-0.01
aF-0.14
aF0.0
aF-0.03
aF-0.03
aF-0.02
aF0.030000000000000006
aF0.04
aF-0.02
aF0.0
aF0.0
aF-0.01
aF-0.01
aF0.04
aF0.0
aF-0.01
aF-0.01
aF-0.05
aF-0.03
aF0.0
aF-0.08
aF-0.03
aF0.0
aF-0.09
aF-0.03
aF-0.01
aF0.030000000000000006
aF-0.03
aF0.0
aF6.938893903907228e-18
aF-0.26
aF-0.02
aF0.02
aF-0.02
aF-0.03
aF0.0
aF0.0
aF-0.01
aF0.0
aF-0.02
aF0.0
aF-0.02
aF0.0
aF0.04
aF0.01
aF0.0
aF0.0
aF0.0
aF-0.05
aF0.22000000000000003
aF0.060000000000000005
aF-0.11
aF-0.02
aF0.0
aF-0.02
aF-0.02
aF-0.02
aF0.07
aF-0.6300000000000003
aF0.5400000000000003
aF-0.02
aF0.09
aF-0.08
aF0.05
aF0.0
aF-0.010000000000000004
aF0.03
aF0.0
aF0.019999999999999997
aF0.01
aF0.04
aF0.0
aF0.030000000000000006
aF0.03
aF0.01
aF0.09
aF0.01
aF0.0
aF0.0
aF0.12
aF0.07
aF0.38000000000000006
aF0.0
aF0.09999999999999999
aF0.16000000000000003
aF0.13999999999999999
aF0.15000000000000002
aF0.12999999999999998
aF0.05
aF0.0
aF-0.04
aF0.2
aF0.10999999999999999
aF0.07
aF0.08
aF0.0
aF-0.02
aF-0.05
aF-0.01
aF-0.01
aF-0.02
aF-0.02
aF-0.05
aF-0.21000000000000005
aF0.0
aF-0.06
aF-0.01
aF-0.02
aF0.03
aF-0.02
aF-0.09
aF-0.04
aF-0.01
aF0.0
aF-0.01
aF0.0
aF0.0
aF-0.02
aF0.02
aF0.09
aF0.0
aF0.0
aF0.25
aF-0.01
aF0.0
aF-0.01
aF-0.01
aF0.0
aF-0.01
aF0.04
aF0.01
aF0.0
aF0.01
aF0.06
aF-0.02
aF0.01
aF-0.01
aF0.0
aF-0.02
aF0.02
aF-0.04
aF-0.01
aF0.04
aF0.0
aF-0.02
aF-0.02
aF-0.02
aF0.08
aF-0.07
aF0.0
aF0.01
aF-0.02
aF-0.02
aF-0.04
aF0.0
aF0.0
aF0.0
aF-0.02
aF0.13999999999999999
aF-0.02
aF-0.20000000000000004
aF0.02
aF0.08
aF-0.02
aF0.0
aF0.05
aF-0.049999999999999996
aF-0.02
aF0.0
aF0.0
aF0.0
aF-0.02
aF0.03
aF-0.05
aF-0.17000000000000004
aF-0.5100000000000002
aF-0.01
aF-0.02
aF-0.02
aF0.0
aF0.18
aF0.15999999999999998
aF-0.060000000000000005
aF0.0
aF-0.01
aF0.060000000000000005
aF0.02
aF-0.05
aF-0.12
aF0.0
aF-0.02
aF0.14999999999999997
aF0.08
aF0.21000000000000002
aF0.0
aF-0.01
aF0.03
aF0.0
aF3.469446951953614e-18
aF-0.07
aF-0.07
aF-0.02
aF-0.09
aF-0.02
aF-0.04
aF0.02
aF0.060000000000000005
aF-0.02
aF0.0
aF-0.02
aF-0.07
aF0.0
aF-0.060000000000000005
aF-0.010000000000000004
aF0.0
aF-0.02
aF0.08
aF-0.019999999999999997
aF-0.1
aF-0.02
aF-0.01
aF-0.02
aF-0.01
aF0.08
aF0.02
aF-0.08
aF0.06
aF0.0
aF0.02
aF0.0
aF-0.03
aF0.03
aF-0.04
aF0.04
aF-0.09999999999999998
aF-0.04
aF0.0
aF0.03
aF0.0
aF0.0
aF0.24999999999999997
aF0.0
aF0.0
aF0.09999999999999999
aF0.02
aF0.0
aF0.0
aF-0.01
aF-0.04
aF0.12000000000000001
aF0.0
aF3.469446951953614e-18
aF0.09
aF0.04
aF-0.01
aF0.0
aF-0.06999999999999999
aF0.0
aF0.0
aF0.009999999999999997
aF-0.02
aF-0.02
aF0.0
aF-0.01
aF-0.03
aF-0.01
aF0.0
aF0.01
aF-0.11
aF-0.01
aF-0.01
aF-0.02
aF-0.01
aF-0.01
aF-0.02
aF0.0
aF-0.02
aF-0.13
aF-0.05
aF0.13
aF-0.01
aF-0.10999999999999997
aF-0.04
aF0.0
aF-0.06
aF-0.019999999999999997
aF0.0
aF-0.02
aF0.0
aF0.0
aF-0.02
aF-0.02
aF-0.02
aF0.01
aF-0.03
aF0.0
aF-0.03
aF0.04
aF0.10999999999999999
aF0.0
aF0.0
aF0.02
aF-0.01
aF0.0
aF-0.08999999999999998
aF-0.09999999999999999
aF-0.06
aF0.0
aF0.0
aF0.08
aF0.0
aF-0.02
aF0.3800000000000001
aF-0.01
aF0.019999999999999997
aF-0.01
aF0.14
aF0.0
aF0.03
aF0.04
aF0.12
aF-0.02
aF-0.11000000000000001
aF0.05
aF-0.02
aF0.0
aF0.04
aF0.0
aF-0.04
aF0.0
aF0.04
aF0.01
aF-0.02
aF-0.04
aF0.02
aF-0.01
aF0.0
aF0.04
aF0.01
aF-0.09
aF-0.25
aF0.0
aF0.02
aF-0.02
aF-0.01
aF0.02
aF0.05
aF0.02
aF-0.02
aF0.01
aF-0.03
aF0.0
aF-0.02
aF0.11
aF-0.06
aF0.1
aF-0.009999999999999997
aF-0.02
aF-0.03
aF0.03
aF-0.13999999999999999
aF0.0
aF-0.01
aF0.0
aF0.0
aF0.02
aF-0.04
aF-0.09
aF-0.03
aF-0.01
aF0.0
aF-0.08
aF-0.04
aF0.14
aF0.0
aF-0.02
aF-0.01
aF0.0
aF0.01
aF0.0
aF-0.01
aF-0.05
aF0.009999999999999993
aF0.06
aF0.0
aF-0.03
aF-0.01
aF0.0
aF0.0
aF0.0
aF-0.03
aF0.01
aF0.0
aF0.0
aF-0.02
aF0.0
aF-0.03
aF-0.01
aF0.04
aF-0.01
aF-0.08
aF0.0
aF-0.02
aF0.0
aF0.0
aF-0.01
aF0.0
aF0.0
aF-0.01
aF0.19
aF-0.05
aF0.01
aF-0.030000000000000006
aF0.0
aF0.0
aF0.0
aF0.08
aF0.0
aF0.2
aF0.02
aF0.09999999999999999
aF-0.01
aF0.0
aF0.09
aF-0.02
aF0.0
aF0.0
aF0.0
aF0.0
aF0.09999999999999999
aF0.0
aF-0.03
aF-0.03
aF-0.03
aF-0.03
aF-0.02
aF-0.02
aF0.0
aF-0.02
aF0.0
aF-0.04
aF0.04999999999999999
aF0.0
aF0.0
aF-0.05
aF-0.04
aF0.0
aF0.02
aF-0.019999999999999997
aF0.04
aF0.04
aF0.0
aF0.0
aF0.0
aF0.04
aF-0.04
aF0.0
aF0.01
aF-0.02
aF0.07
aF0.04
aF0.11000000000000001
aF0.0
aF-0.01
aF-0.05
aF-0.01
aF-0.01
aF0.0
aF-0.03
aF-0.01
aF0.0
aF-0.01
aF0.0
aF0.0
aF0.07
aF-0.03
aF-0.08
aF0.0
aF0.09000000000000001
aF-0.01
aF0.37000000000000016
aF0.019999999999999997
aF-0.01
aF-0.03
aF-0.08
aF-0.04
aF0.0
aF0.0
aF0.27
aF-0.08
aF0.0
aF-0.04
aF0.019999999999999997
aF-0.01
aF-0.03
aF0.060000000000000005
aF0.1
aF-0.08
aF0.0
aF0.0
aF-0.04
aF-0.01
aF0.03
aF-0.08
aF0.0
aF-0.06999999999999999
aF0.03
aF-0.02
aF0.0
aF0.08
aF-0.01
aF-0.03
aF0.08
aF0.0
aF-0.01
aF0.0
aF0.0
aF-0.02
aF0.05
aF-0.02
aF-0.03
aF0.08
aF0.02
aF-0.02
aF0.15
aF-0.22000000000000078
aF-0.060000000000000005
aF0.08
aF0.08
aF0.0
aF-0.02
aF0.03
aF-0.02
aF-0.01
aF0.09999999999999999
aF-0.01
aF0.0
aF0.08
aF0.0
aF-0.02
aF0.08
aF-0.04
aF0.02
aF0.060000000000000005
aF0.03
aF0.0
aF-0.04
aF0.0
aF0.01
aF0.05
aF0.08
aF0.0
aF0.06999999999999999
aF-0.21999999999999986
aF-0.02
aF-0.01
aF-0.03
aF-0.15000000000000002
aF0.01
aF-0.04
aF-0.07
aF0.0
aF0.0
aF-0.03
aF-0.04
aF0.01
aF-0.03
aF-0.01
aF-0.02
aF0.0
aF0.0
aF0.0
aF-0.01
aF-0.060000000000000005
aF-0.03
aF0.0
aF-0.05
aF0.04
aF0.0
aF0.05
aF0.03
aF-0.05
aF-0.01
aF0.09000000000000008
aF0.0
aF-0.01
aF0.0
aF-0.02
aF0.10999999999999997
aF-0.02
aF0.02
aF0.0
aF0.02
aF0.0
aF-0.06999999999999999
aF0.01
aF-0.02
aF0.04
aF0.0
aF-0.04
aF-0.01
aF0.02
aF-0.31
aF-0.16000000000000003
aF0.24000000000000005
aF-0.04
aF0.0
aF-0.02
aF-0.01
aF0.0
aF0.02
aF-0.03
aF0.0
aF0.0
aF-0.02
aF-0.19000000000000006
aF0.03
aF-0.030000000000000006
aF0.0
aF0.01
aF0.03
aF0.0
aF-0.03
aF-0.06999999999999999
aF0.01
aF0.06
aF0.07
aF0.0
aF-0.08
aF-0.02
aF0.07
aF-0.06
aF-0.05
aF-0.05
aF0.0
aF-0.01
aF-0.16
aF-0.01
aF-0.03
aF-0.02
aF0.09
aF-0.1
aF0.0
aF-0.03
aF2.42861286636753e-17
aF0.08
aF-0.02
aF-0.04
aF0.0
aF0.02
aF-0.02
aF-0.02
aF-0.04
aF-0.02
aF0.02
aF0.10000000000000002
aF-0.03
aF-0.05
aF-0.02
aF0.0
aF0.01
aF0.0
aF-0.03
aF-0.010000000000000004
aF0.0
aF-0.060000000000000005
aF0.0
aF-0.02
aF-0.01
aF0.04
aF-0.02
aF0.01
aF-0.11999999999999998
aF0.04
aF0.01
aF-0.02
aF-0.04
aF0.0
aF0.0
aF0.0
aF0.0
aF0.0
aF0.03
aF-0.02
aF0.02
aF-0.05
aF0.04
aF-0.11999999999999998
aF-0.02
aF-0.2
aF0.0
aF-0.04
aF0.05
aF0.15
aF-0.02
aF-0.03
aF0.0
aF0.060000000000000005
aF0.0
aF-0.009999999999999997
aF0.05
aF0.01
aF0.0
aF-0.03
aF0.0
aF0.0
aF0.03
aF-0.060000000000000005
aF0.0
aF0.0
aF-0.01
aF-0.08
aF-0.02
aF-0.01
aF-0.02
aF-0.02
aF0.0
aF-0.03
aF0.0
aF-0.05
aF-0.02
aF-0.09
aF0.0
aF0.0
aF0.0
aF0.0
aF-0.03
aF0.16
aF-0.02
aF-0.05
aF-0.02
aF-0.02
aF-0.04
aF-0.02
aF-0.02
aF0.03
aF-0.02
aF0.08
aF0.03
aF0.0
aF0.0
aF0.0
aF0.0
aF-0.01
aF0.26
aF0.0
aF0.0
aF-0.02
aF-0.02
aF0.0
aF0.019999999999999997
aF0.0
aF0.03
aF-0.01
aF-0.060000000000000005
aF0.07
aF-0.009999999999999997
aF-0.01
aF0.11999999999999998
aF-0.08
aF0.03
aF0.060000000000000005
aF0.060000000000000005
aF0.04
aF0.04
aF3.469446951953614e-18
aF0.08
aF-0.01
aF0.53
aF0.0
aF0.0
aF-0.02
aF0.04
aF-0.12
aF-0.02
aF0.02
aF0.03
aF0.01
aF0.36000000000000004
aF0.08
aF-0.03
aF0.0
aF0.04
aF0.0
aF-0.1
aF0.03
aF-0.02
aF-0.09
aF0.0
aF-0.02
aF-0.04
aF0.04
aF0.08
aF0.0
aF0.0
aF0.0
aF0.02
aF-0.01
aF-0.02
aF0.0
aF0.0
aF0.07
aF0.0
aF-0.05
aF0.04
aF0.09999999999999999
aF0.030000000000000006
aF0.0
aF0.08
aF-0.03
aF0.02
aF0.02
aF-0.01
aF0.08
aF-0.02
aF0.04
aF0.02
aF-0.05
aF0.0
aF-0.03
aF0.0
aF-0.08
aF0.0
aF0.060000000000000005
aF-0.02
aF-0.02
aF-0.05
aF-0.03
aF0.0
aF0.0
aF-0.02
aF0.03
aF0.060000000000000005
aF-0.04
aF0.0
aF0.0
aF-0.01
aF-0.08
aF0.02
aF0.0
aF0.05
aF-0.03
aF0.1
aF0.02
aF0.0
aF0.060000000000000005
aF-0.05
aF0.0
aF0.0
aF-0.04
aF0.05
aF-0.03
aF-0.03
aF-0.04
aF0.0
aF0.01
aF-0.02
aF0.03
aF-0.16999999999999998
aF-0.04
aF0.0
aF-0.019999999999999997
aF0.0
aF0.06
aF-0.07
aF-0.01
aF0.0
aF0.01
aF0.09
aF0.01
aF-0.07
aF-0.01
aF0.0
aF0.06
aF-0.01
aF-0.02
aF0.0
aF0.0
aF-0.01
aF-0.06
aF-0.02
aF0.3900000000000001
aF-0.04
aF0.0
aF0.05
aF-0.01
aF0.02
aF-0.01
aF0.060000000000000005
aF0.0
aF-0.01
aF-0.02
aF0.06
aF0.01
aF-0.009999999999999997
aF0.01
aF0.0
aF0.04
aF-0.03
aF0.0
aF0.03
aF0.12000000000000001
aF0.03
aF0.0
aF-0.01
aF-0.060000000000000005
aF0.0
aF-0.06
aF0.15
aF0.0
aF-0.01
aF-0.03
aF-0.02
aF-0.01
aF-0.060000000000000005
aF-0.01
aF-0.01
aF-0.01
aF0.03
aF0.0
aF0.0
aF-0.02
aF0.0
aF0.09
aF-0.05
aF0.02
aF0.060000000000000005
aF-0.1
aF0.08000000000000002
aF0.0
aF-0.08
aF-0.01
aF0.0
aF0.03
aF-0.01
aF0.08
aF0.0
aF-0.02
aF0.08
aF0.01
aF-0.01
aF0.01
aF-0.03
aF0.0
aF-0.009999999999999998
aF-0.02
aF0.019999999999999997
aF0.0
aF-0.03
aF0.0
aF-0.03
aF0.03
aF0.0
aF0.0
aF-0.07
aF0.04
aF-0.01
aF-0.01
aF-0.05
aF-0.01
aF3.469446951953614e-18
aF-0.01
aF0.25
aF-0.02
aF-0.03
aF0.0
aF0.05
aF-0.1
aF-0.02
aF-0.009999999999999997
aF-0.05
aF0.15000000000000002
aF-0.02
aF-0.08
aF0.30000000000000004
aF0.04
aF-0.01
aF0.0
aF-0.09
aF0.0
aF-0.03
aF-0.02
aF0.0
aF-0.03
aF0.0
aF0.05
aF-0.08
aF-0.06
aF0.06
aF-0.02
aF0.0
aF-0.01
aF-0.02
aF0.0
aF-0.02
aF-0.02
aF0.0
aF0.0
aF0.060000000000000005
aF-0.03
aF-0.02
aF0.08
aF0.07
aF0.26000000000000006
aF0.0
aF0.0
aF0.0
aF0.08
aF-0.02
aF0.6300000000000003
aF-0.01
aF0.02
aF-0.01
aF0.0
aF0.0
aF0.08
aF-0.05
aF0.06
aF0.1
aF0.029999999999999992
aF0.0
aF-0.03
aF-0.02
aF-0.02
aF0.07
aF0.08
aF-0.01
aF0.15
aF-0.03
aF-0.02
aF0.0
aF0.07999999999999999
aF-0.03
aF-0.14
aF-0.02
aF0.01
aF-0.060000000000000005
aF0.0
aF-0.06
aF0.0
aF-0.03
aF0.0
aF-0.02
aF-0.07
aF-0.07
aF0.0
aF0.06
aF0.07
aF0.09999999999999999
aF-0.01
aF0.17
aF-0.02
aF0.05
aF0.0
aF0.1
aF0.02
aF-0.04
aF-0.02
aF0.0
aF0.0
aF0.0
aF0.07
aF-0.060000000000000005
aF0.0
aF0.0
aF0.04
aF0.0
aF-0.01
aF0.29000000000000004
aF0.0
aF0.04
aF-0.02
aF0.0
aF0.19000000000000003
aF-0.05
aF0.0
aF0.01
aF-0.03
aF0.04000000000000001
aF-0.04
aF0.04
aF0.0
aF0.0
aF0.01
aF0.0
aF-0.01
aF-0.03
aF-0.01
aF-0.02999999999999999
aF-0.02
aF-0.10999999999999999
aF-0.03
aF-0.07
aF-0.23
aF-0.03
aF0.04
aF0.04
aF0.0
aF-0.04
aF-0.02
aF0.33
aF-0.01
aF-0.06
aF0.02
aF-0.21000000000000002
aF-0.04
aF0.0
aF0.08999999999999998
aF-0.02
aF0.0
aF0.0
aF0.0
aF-0.06
aF-0.17
aF0.0
aF-0.02
aF-0.02
aF0.0
aF0.0
aF0.0
aF-0.02
aF-0.05
aF0.0
aF0.03
aF0.01
aF-0.03
aF-0.03
aF-0.03
aF-0.02
aF-0.01
aF0.08000000000000002
aF-0.04
aF-0.12
aF-0.02
aF0.060000000000000005
aF-0.03
aF0.24
aF0.0
aF0.01
aF-0.060000000000000005
aF0.0
aF-0.24000000000000005
aF0.06
aF0.0
aF0.0
aF-0.01
aF-0.03
aF-0.03
aF0.01
aF0.0
aF-0.01
aF0.0
aF-0.01
aF-0.02
aF-0.02
aF0.060000000000000005
aF0.02
aF-0.22000000000000006
aF0.0
aF0.02
aF-0.01
aF-0.02
aF-0.03
aF-0.01
aF0.09
aF0.09
aF-0.06999999999999999
aF0.04
aF0.0
aF0.0
aF0.0
aF-0.02
aF0.02
aF0.01
aF0.0
aF0.0
aF0.03
aF0.13999999999999996
aF0.0
aF0.21000000000000002
aF0.0
aF-0.01
aF-0.29
aF-0.02
aF0.0
aF-0.01
aF0.18000000000000005
aF0.0
aF0.0
aF0.07
aF-0.06
aF-0.05
aF0.030000000000000013
aF0.02
aF0.04
aF0.05
aF-0.09999999999999999
aF-0.02
aF0.0
aF0.04
aF0.0
aF0.17999999999999997
aF0.05
aF0.0
aF0.05999999999999999
aF0.0
aF0.0
aF0.25999999999999995
aF0.05
aF0.0
aF-0.02
aF0.0
aF0.0
aF-0.020000000000000004
aF0.0
aF-0.02
aF-0.02
aF-0.18000000000000002
aF0.0
aF-0.04
aF0.27999999999999997
aF0.0
aF0.0
aF0.04
aF0.06
aF-0.1
aF-0.2700000000000001
aF-0.019999999999999993
aF-0.02
aF-0.060000000000000005
aF-0.09
aF0.010000000000000004
aF-0.02
aF0.0
aF0.03
aF0.0
aF-0.03
aF-0.01
aF0.03
aF-0.03
aF-0.02
aF-0.01
aF-0.01
aF0.03
aF0.0
aF-0.05
aF-0.02
aF-0.03
aF-0.03
aF0.03
aF-0.01
aF0.05
aF-0.03
aF-0.02
aF-0.04
aF-0.05
aF-0.05
aF0.04
aF0.04
aF-0.04
aF0.1800000000000031
aF0.04000000000000001
tp1
.